

Microchip Technology PIC18 LITE Macro Assembler V2.00 build -1524193055 
                                                                                               Wed Nov 21 03:49:44 2018

Microchip Technology Omniscient Code Generator v2.00 (Free mode) build 20180527130849
     1  0000                     
     2                           ; Version 2.00
     3                           ; Generated 27/05/2018 GMT
     4                           
     5                           ; 
     6                           ; Copyright © 2018, Microchip Technology Inc. and its subsidiaries ("Microchip")
     7                           ; All rights reserved.
     8                           ; 
     9                           ; This software is developed by Microchip Technology Inc. and its subsidiaries ("Microch
                                 ip").
    10                           ; 
    11                           ; Redistribution and use in source and binary forms, with or without modification, are
    12                           ; permitted provided that the following conditions are met:
    13                           ; 
    14                           ;     1. Redistributions of source code must retain the above copyright notice, this lis
                                 t of
    15                           ;        conditions and the following disclaimer.
    16                           ; 
    17                           ;     2. Redistributions in binary form must reproduce the above copyright notice, this 
                                 list
    18                           ;        of conditions and the following disclaimer in the documentation and/or other
    19                           ;        materials provided with the distribution.
    20                           ; 
    21                           ;     3. Microchip's name may not be used to endorse or promote products derived from th
                                 is
    22                           ;        software without specific prior written permission.
    23                           ; 
    24                           ; THIS SOFTWARE IS PROVIDED BY MICROCHIP "AS IS" AND ANY EXPRESS OR IMPLIED WARRANTIES,

    25                           ; INCLUDING, BUT NOT LIMITED TO, THE IMPLIED WARRANTIES OF MERCHANTABILITY AND FITNESS F
                                 OR
    26                           ; PURPOSE ARE DISCLAIMED.  IN NO EVENT SHALL MICROCHIP BE LIABLE FOR ANY DIRECT, INDIREC
                                 T,
    27                           ; INCIDENTAL, SPECIAL, EXEMPLARY, OR CONSEQUENTIAL DAMAGES (INCLUDING BUT NOT LIMITED TO
                                 
    28                           ; PROCUREMENT OF SUBSTITUTE GOODS OR SERVICES; LOSS OF USE, DATA OR PROFITS; OR BUSINESS
                                 
    29                           ; INTERRUPTION) HOWSOEVER CAUSED AND ON ANY THEORY OF LIABILITY, WHETHER IN CONTRACT, ST
                                 RICT
    30                           ; LIABILITY, OR TORT (INCLUDING NEGLIGENCE OR OTHERWISE) ARISING IN ANY WAY OUT OF THE U
                                 SE OF
    31                           ; THIS SOFTWARE, EVEN IF ADVISED OF THE POSSIBILITY OF SUCH DAMAGE.
    32                           ; 
    33                           
    34                           
    35                           ; 
    36                           ; Code-generator required, PIC18F4550 Definitions
    37                           ; 
    38  0000                     fsr0 equ 0FE9h
    39  0000                     fsr0h equ 0FEAh
    40  0000                     fsr0l equ 0FE9h
    41  0000                     fsr1 equ 0FE1h
    42  0000                     fsr1h equ 0FE2h
    43  0000                     fsr1l equ 0FE1h
    44  0000                     fsr2 equ 0FD9h
    45  0000                     fsr2h equ 0FDAh
    46  0000                     fsr2l equ 0FD9h
    47  0000                     indf0 equ 0FEFh
    48  0000                     indf1 equ 0FE7h
    49  0000                     indf2 equ 0FDFh
    50  0000                     intcon equ 0FF2h
    51  0000                     nvmcon equ 00h
    52  0000                     pcl equ 0FF9h
    53  0000                     pclath equ 0FFAh
    54  0000                     pclatu equ 0FFBh
    55  0000                     plusw0 equ 0FEBh
    56  0000                     plusw1 equ 0FE3h
    57  0000                     plusw2 equ 0FDBh
    58  0000                     postdec0 equ 0FEDh
    59  0000                     postdec1 equ 0FE5h
    60  0000                     postdec2 equ 0FDDh
    61  0000                     postinc0 equ 0FEEh
    62  0000                     postinc1 equ 0FE6h
    63  0000                     postinc2 equ 0FDEh
    64  0000                     preinc0 equ 0FECh
    65  0000                     preinc1 equ 0FE4h
    66  0000                     preinc2 equ 0FDCh
    67  0000                     prod equ 0FF3h
    68  0000                     prodh equ 0FF4h
    69  0000                     prodl equ 0FF3h
    70  0000                     status equ 0FD8h
    71  0000                     tablat equ 0FF5h
    72  0000                     tblptr equ 0FF6h
    73  0000                     tblptrh equ 0FF7h
    74  0000                     tblptrl equ 0FF6h
    75  0000                     tblptru equ 0FF8h
    76  0000                     tosl equ 0FFDh
    77  0000                     wreg equ 0FE8h
    78  0000                     
     2                           opt pagewidth 120
     3  0000                     byte0	macro	val
     4                           	(getbyte(val,0))
     5                           endm
     6  0000                     byte1	macro	val
     7                           	(getbyte(val,1))
     8                           endm
     9  0000                     byte2	macro	val
    10                           	(getbyte(val,2))
    11                           endm
    12  0000                     byte3	macro	val
    13                           	(getbyte(val,3))
    14                           endm
    15  0000                     byte4	macro	val
    16                           	(getbyte(val,4))
    17                           endm
    18  0000                     byte5	macro	val
    19                           	(getbyte(val,5))
    20                           endm
    21  0000                     byte6	macro	val
    22                           	(getbyte(val,6))
    23                           endm
    24  0000                     byte7	macro	val
    25                           	(getbyte(val,7))
    26                           endm
    27  0000                     getword	macro	val,pos
    28                           	(((val) >> (8 * pos)) and 0xffff)
    29                           endm
    30  0000                     word0	macro	val
    31                           	(getword(val,0))
    32                           endm
    33  0000                     word1	macro	val
    34                           	(getword(val,2))
    35                           endm
    36  0000                     word2	macro	val
    37                           	(getword(val,4))
    38                           endm
    39  0000                     word3	macro	val
    40                           	(getword(val,6))
    41                           endm
    42  0000                     gettword	macro	val,pos
    43                           	(((val) >> (8 * pos)) and 0xffffff)
    44                           endm
    45  0000                     tword0	macro	val
    46                           	(gettword(val,0))
    47                           endm
    48  0000                     tword1	macro	val
    49                           	(gettword(val,3))
    50                           endm
    51  0000                     tword2	macro	val
    52                           	(gettword(val,6))
    53                           endm
    54  0000                     getdword	macro	val,pos
    55                           	(((val) >> (8 * pos)) and 0xffffffff)
    56                           endm
    57  0000                     dword0	macro	val
    58                           	(getdword(val,0))
    59                           endm
    60  0000                     dword1	macro	val
    61                           	(getdword(val,4))
    62                           endm
    63  0000                     clrc   macro
    64                           	bcf	status,0
    65                           endm
    66  0000                     setc   macro
    67                           	bsf	status,0
    68                           endm
    69  0000                     clrz   macro
    70                           	bcf	status,2
    71                           endm
    72  0000                     setz   macro
    73                           	bsf	status,2
    74                           endm
    75  0000                     skipnz macro
    76                           	btfsc	status,2
    77                           endm
    78  0000                     skipz  macro
    79                           	btfss	status,2
    80                           endm
    81  0000                     skipnc macro
    82                           	btfsc	status,0
    83                           endm
    84  0000                     skipc  macro
    85                           	btfss	status,0
    86                           endm
    87  0000                     pushw macro
    88                           	movwf postinc1
    89                           endm
    90  0000                     pushf macro arg1
    91                           	movff arg1, postinc1
    92                           endm
    93  0000                     popw macro
    94                           	movf postdec1,f
    95                           	movf indf1,w
    96                           endm
    97  0000                     popf macro arg1
    98                           	movf postdec1,f
    99                           	movff indf1,arg1
   100                           endm
   101  0000                     popfc macro arg1
   102                           	movff plusw1,arg1
   103                           	decfsz fsr1,f
   104                           endm
   105  0000                     	global	__ramtop
   106                           	global	__accesstop
   107                           # 54 "C:\Program Files (x86)\Microchip\xc8\v2.00\pic\include\pic18f4550.h"
   108                           SPPDATA equ 0F62h ;# 
   109  0000                     # 74 "C:\Program Files (x86)\Microchip\xc8\v2.00\pic\include\pic18f4550.h"
   110                           SPPCFG equ 0F63h ;# 
   111  0000                     # 151 "C:\Program Files (x86)\Microchip\xc8\v2.00\pic\include\pic18f4550.h"
   112                           SPPEPS equ 0F64h ;# 
   113  0000                     # 225 "C:\Program Files (x86)\Microchip\xc8\v2.00\pic\include\pic18f4550.h"
   114                           SPPCON equ 0F65h ;# 
   115  0000                     # 251 "C:\Program Files (x86)\Microchip\xc8\v2.00\pic\include\pic18f4550.h"
   116                           UFRM equ 0F66h ;# 
   117  0000                     # 258 "C:\Program Files (x86)\Microchip\xc8\v2.00\pic\include\pic18f4550.h"
   118                           UFRML equ 0F66h ;# 
   119  0000                     # 336 "C:\Program Files (x86)\Microchip\xc8\v2.00\pic\include\pic18f4550.h"
   120                           UFRMH equ 0F67h ;# 
   121  0000                     # 376 "C:\Program Files (x86)\Microchip\xc8\v2.00\pic\include\pic18f4550.h"
   122                           UIR equ 0F68h ;# 
   123  0000                     # 432 "C:\Program Files (x86)\Microchip\xc8\v2.00\pic\include\pic18f4550.h"
   124                           UIE equ 0F69h ;# 
   125  0000                     # 488 "C:\Program Files (x86)\Microchip\xc8\v2.00\pic\include\pic18f4550.h"
   126                           UEIR equ 0F6Ah ;# 
   127  0000                     # 539 "C:\Program Files (x86)\Microchip\xc8\v2.00\pic\include\pic18f4550.h"
   128                           UEIE equ 0F6Bh ;# 
   129  0000                     # 590 "C:\Program Files (x86)\Microchip\xc8\v2.00\pic\include\pic18f4550.h"
   130                           USTAT equ 0F6Ch ;# 
   131  0000                     # 650 "C:\Program Files (x86)\Microchip\xc8\v2.00\pic\include\pic18f4550.h"
   132                           UCON equ 0F6Dh ;# 
   133  0000                     # 701 "C:\Program Files (x86)\Microchip\xc8\v2.00\pic\include\pic18f4550.h"
   134                           UADDR equ 0F6Eh ;# 
   135  0000                     # 765 "C:\Program Files (x86)\Microchip\xc8\v2.00\pic\include\pic18f4550.h"
   136                           UCFG equ 0F6Fh ;# 
   137  0000                     # 844 "C:\Program Files (x86)\Microchip\xc8\v2.00\pic\include\pic18f4550.h"
   138                           UEP0 equ 0F70h ;# 
   139  0000                     # 952 "C:\Program Files (x86)\Microchip\xc8\v2.00\pic\include\pic18f4550.h"
   140                           UEP1 equ 0F71h ;# 
   141  0000                     # 1060 "C:\Program Files (x86)\Microchip\xc8\v2.00\pic\include\pic18f4550.h"
   142                           UEP2 equ 0F72h ;# 
   143  0000                     # 1168 "C:\Program Files (x86)\Microchip\xc8\v2.00\pic\include\pic18f4550.h"
   144                           UEP3 equ 0F73h ;# 
   145  0000                     # 1276 "C:\Program Files (x86)\Microchip\xc8\v2.00\pic\include\pic18f4550.h"
   146                           UEP4 equ 0F74h ;# 
   147  0000                     # 1384 "C:\Program Files (x86)\Microchip\xc8\v2.00\pic\include\pic18f4550.h"
   148                           UEP5 equ 0F75h ;# 
   149  0000                     # 1492 "C:\Program Files (x86)\Microchip\xc8\v2.00\pic\include\pic18f4550.h"
   150                           UEP6 equ 0F76h ;# 
   151  0000                     # 1600 "C:\Program Files (x86)\Microchip\xc8\v2.00\pic\include\pic18f4550.h"
   152                           UEP7 equ 0F77h ;# 
   153  0000                     # 1708 "C:\Program Files (x86)\Microchip\xc8\v2.00\pic\include\pic18f4550.h"
   154                           UEP8 equ 0F78h ;# 
   155  0000                     # 1784 "C:\Program Files (x86)\Microchip\xc8\v2.00\pic\include\pic18f4550.h"
   156                           UEP9 equ 0F79h ;# 
   157  0000                     # 1860 "C:\Program Files (x86)\Microchip\xc8\v2.00\pic\include\pic18f4550.h"
   158                           UEP10 equ 0F7Ah ;# 
   159  0000                     # 1936 "C:\Program Files (x86)\Microchip\xc8\v2.00\pic\include\pic18f4550.h"
   160                           UEP11 equ 0F7Bh ;# 
   161  0000                     # 2012 "C:\Program Files (x86)\Microchip\xc8\v2.00\pic\include\pic18f4550.h"
   162                           UEP12 equ 0F7Ch ;# 
   163  0000                     # 2088 "C:\Program Files (x86)\Microchip\xc8\v2.00\pic\include\pic18f4550.h"
   164                           UEP13 equ 0F7Dh ;# 
   165  0000                     # 2164 "C:\Program Files (x86)\Microchip\xc8\v2.00\pic\include\pic18f4550.h"
   166                           UEP14 equ 0F7Eh ;# 
   167  0000                     # 2240 "C:\Program Files (x86)\Microchip\xc8\v2.00\pic\include\pic18f4550.h"
   168                           UEP15 equ 0F7Fh ;# 
   169  0000                     # 2316 "C:\Program Files (x86)\Microchip\xc8\v2.00\pic\include\pic18f4550.h"
   170                           PORTA equ 0F80h ;# 
   171  0000                     # 2455 "C:\Program Files (x86)\Microchip\xc8\v2.00\pic\include\pic18f4550.h"
   172                           PORTB equ 0F81h ;# 
   173  0000                     # 2565 "C:\Program Files (x86)\Microchip\xc8\v2.00\pic\include\pic18f4550.h"
   174                           PORTC equ 0F82h ;# 
   175  0000                     # 2707 "C:\Program Files (x86)\Microchip\xc8\v2.00\pic\include\pic18f4550.h"
   176                           PORTD equ 0F83h ;# 
   177  0000                     # 2828 "C:\Program Files (x86)\Microchip\xc8\v2.00\pic\include\pic18f4550.h"
   178                           PORTE equ 0F84h ;# 
   179  0000                     # 2975 "C:\Program Files (x86)\Microchip\xc8\v2.00\pic\include\pic18f4550.h"
   180                           LATA equ 0F89h ;# 
   181  0000                     # 3075 "C:\Program Files (x86)\Microchip\xc8\v2.00\pic\include\pic18f4550.h"
   182                           LATB equ 0F8Ah ;# 
   183  0000                     # 3187 "C:\Program Files (x86)\Microchip\xc8\v2.00\pic\include\pic18f4550.h"
   184                           LATC equ 0F8Bh ;# 
   185  0000                     # 3265 "C:\Program Files (x86)\Microchip\xc8\v2.00\pic\include\pic18f4550.h"
   186                           LATD equ 0F8Ch ;# 
   187  0000                     # 3377 "C:\Program Files (x86)\Microchip\xc8\v2.00\pic\include\pic18f4550.h"
   188                           LATE equ 0F8Dh ;# 
   189  0000                     # 3429 "C:\Program Files (x86)\Microchip\xc8\v2.00\pic\include\pic18f4550.h"
   190                           TRISA equ 0F92h ;# 
   191  0000                     # 3434 "C:\Program Files (x86)\Microchip\xc8\v2.00\pic\include\pic18f4550.h"
   192                           DDRA equ 0F92h ;# 
   193  0000                     # 3627 "C:\Program Files (x86)\Microchip\xc8\v2.00\pic\include\pic18f4550.h"
   194                           TRISB equ 0F93h ;# 
   195  0000                     # 3632 "C:\Program Files (x86)\Microchip\xc8\v2.00\pic\include\pic18f4550.h"
   196                           DDRB equ 0F93h ;# 
   197  0000                     # 3849 "C:\Program Files (x86)\Microchip\xc8\v2.00\pic\include\pic18f4550.h"
   198                           TRISC equ 0F94h ;# 
   199  0000                     # 3854 "C:\Program Files (x86)\Microchip\xc8\v2.00\pic\include\pic18f4550.h"
   200                           DDRC equ 0F94h ;# 
   201  0000                     # 4003 "C:\Program Files (x86)\Microchip\xc8\v2.00\pic\include\pic18f4550.h"
   202                           TRISD equ 0F95h ;# 
   203  0000                     # 4008 "C:\Program Files (x86)\Microchip\xc8\v2.00\pic\include\pic18f4550.h"
   204                           DDRD equ 0F95h ;# 
   205  0000                     # 4225 "C:\Program Files (x86)\Microchip\xc8\v2.00\pic\include\pic18f4550.h"
   206                           TRISE equ 0F96h ;# 
   207  0000                     # 4230 "C:\Program Files (x86)\Microchip\xc8\v2.00\pic\include\pic18f4550.h"
   208                           DDRE equ 0F96h ;# 
   209  0000                     # 4327 "C:\Program Files (x86)\Microchip\xc8\v2.00\pic\include\pic18f4550.h"
   210                           OSCTUNE equ 0F9Bh ;# 
   211  0000                     # 4386 "C:\Program Files (x86)\Microchip\xc8\v2.00\pic\include\pic18f4550.h"
   212                           PIE1 equ 0F9Dh ;# 
   213  0000                     # 4470 "C:\Program Files (x86)\Microchip\xc8\v2.00\pic\include\pic18f4550.h"
   214                           PIR1 equ 0F9Eh ;# 
   215  0000                     # 4554 "C:\Program Files (x86)\Microchip\xc8\v2.00\pic\include\pic18f4550.h"
   216                           IPR1 equ 0F9Fh ;# 
   217  0000                     # 4638 "C:\Program Files (x86)\Microchip\xc8\v2.00\pic\include\pic18f4550.h"
   218                           PIE2 equ 0FA0h ;# 
   219  0000                     # 4709 "C:\Program Files (x86)\Microchip\xc8\v2.00\pic\include\pic18f4550.h"
   220                           PIR2 equ 0FA1h ;# 
   221  0000                     # 4780 "C:\Program Files (x86)\Microchip\xc8\v2.00\pic\include\pic18f4550.h"
   222                           IPR2 equ 0FA2h ;# 
   223  0000                     # 4851 "C:\Program Files (x86)\Microchip\xc8\v2.00\pic\include\pic18f4550.h"
   224                           EECON1 equ 0FA6h ;# 
   225  0000                     # 4917 "C:\Program Files (x86)\Microchip\xc8\v2.00\pic\include\pic18f4550.h"
   226                           EECON2 equ 0FA7h ;# 
   227  0000                     # 4924 "C:\Program Files (x86)\Microchip\xc8\v2.00\pic\include\pic18f4550.h"
   228                           EEDATA equ 0FA8h ;# 
   229  0000                     # 4931 "C:\Program Files (x86)\Microchip\xc8\v2.00\pic\include\pic18f4550.h"
   230                           EEADR equ 0FA9h ;# 
   231  0000                     # 4938 "C:\Program Files (x86)\Microchip\xc8\v2.00\pic\include\pic18f4550.h"
   232                           RCSTA equ 0FABh ;# 
   233  0000                     # 4943 "C:\Program Files (x86)\Microchip\xc8\v2.00\pic\include\pic18f4550.h"
   234                           RCSTA1 equ 0FABh ;# 
   235  0000                     # 5148 "C:\Program Files (x86)\Microchip\xc8\v2.00\pic\include\pic18f4550.h"
   236                           TXSTA equ 0FACh ;# 
   237  0000                     # 5153 "C:\Program Files (x86)\Microchip\xc8\v2.00\pic\include\pic18f4550.h"
   238                           TXSTA1 equ 0FACh ;# 
   239  0000                     # 5404 "C:\Program Files (x86)\Microchip\xc8\v2.00\pic\include\pic18f4550.h"
   240                           TXREG equ 0FADh ;# 
   241  0000                     # 5409 "C:\Program Files (x86)\Microchip\xc8\v2.00\pic\include\pic18f4550.h"
   242                           TXREG1 equ 0FADh ;# 
   243  0000                     # 5416 "C:\Program Files (x86)\Microchip\xc8\v2.00\pic\include\pic18f4550.h"
   244                           RCREG equ 0FAEh ;# 
   245  0000                     # 5421 "C:\Program Files (x86)\Microchip\xc8\v2.00\pic\include\pic18f4550.h"
   246                           RCREG1 equ 0FAEh ;# 
   247  0000                     # 5428 "C:\Program Files (x86)\Microchip\xc8\v2.00\pic\include\pic18f4550.h"
   248                           SPBRG equ 0FAFh ;# 
   249  0000                     # 5433 "C:\Program Files (x86)\Microchip\xc8\v2.00\pic\include\pic18f4550.h"
   250                           SPBRG1 equ 0FAFh ;# 
   251  0000                     # 5440 "C:\Program Files (x86)\Microchip\xc8\v2.00\pic\include\pic18f4550.h"
   252                           SPBRGH equ 0FB0h ;# 
   253  0000                     # 5447 "C:\Program Files (x86)\Microchip\xc8\v2.00\pic\include\pic18f4550.h"
   254                           T3CON equ 0FB1h ;# 
   255  0000                     # 5568 "C:\Program Files (x86)\Microchip\xc8\v2.00\pic\include\pic18f4550.h"
   256                           TMR3 equ 0FB2h ;# 
   257  0000                     # 5575 "C:\Program Files (x86)\Microchip\xc8\v2.00\pic\include\pic18f4550.h"
   258                           TMR3L equ 0FB2h ;# 
   259  0000                     # 5582 "C:\Program Files (x86)\Microchip\xc8\v2.00\pic\include\pic18f4550.h"
   260                           TMR3H equ 0FB3h ;# 
   261  0000                     # 5589 "C:\Program Files (x86)\Microchip\xc8\v2.00\pic\include\pic18f4550.h"
   262                           CMCON equ 0FB4h ;# 
   263  0000                     # 5679 "C:\Program Files (x86)\Microchip\xc8\v2.00\pic\include\pic18f4550.h"
   264                           CVRCON equ 0FB5h ;# 
   265  0000                     # 5764 "C:\Program Files (x86)\Microchip\xc8\v2.00\pic\include\pic18f4550.h"
   266                           ECCP1AS equ 0FB6h ;# 
   267  0000                     # 5769 "C:\Program Files (x86)\Microchip\xc8\v2.00\pic\include\pic18f4550.h"
   268                           CCP1AS equ 0FB6h ;# 
   269  0000                     # 5926 "C:\Program Files (x86)\Microchip\xc8\v2.00\pic\include\pic18f4550.h"
   270                           ECCP1DEL equ 0FB7h ;# 
   271  0000                     # 5931 "C:\Program Files (x86)\Microchip\xc8\v2.00\pic\include\pic18f4550.h"
   272                           CCP1DEL equ 0FB7h ;# 
   273  0000                     # 6064 "C:\Program Files (x86)\Microchip\xc8\v2.00\pic\include\pic18f4550.h"
   274                           BAUDCON equ 0FB8h ;# 
   275  0000                     # 6069 "C:\Program Files (x86)\Microchip\xc8\v2.00\pic\include\pic18f4550.h"
   276                           BAUDCTL equ 0FB8h ;# 
   277  0000                     # 6244 "C:\Program Files (x86)\Microchip\xc8\v2.00\pic\include\pic18f4550.h"
   278                           CCP2CON equ 0FBAh ;# 
   279  0000                     # 6308 "C:\Program Files (x86)\Microchip\xc8\v2.00\pic\include\pic18f4550.h"
   280                           CCPR2 equ 0FBBh ;# 
   281  0000                     # 6315 "C:\Program Files (x86)\Microchip\xc8\v2.00\pic\include\pic18f4550.h"
   282                           CCPR2L equ 0FBBh ;# 
   283  0000                     # 6322 "C:\Program Files (x86)\Microchip\xc8\v2.00\pic\include\pic18f4550.h"
   284                           CCPR2H equ 0FBCh ;# 
   285  0000                     # 6329 "C:\Program Files (x86)\Microchip\xc8\v2.00\pic\include\pic18f4550.h"
   286                           CCP1CON equ 0FBDh ;# 
   287  0000                     # 6334 "C:\Program Files (x86)\Microchip\xc8\v2.00\pic\include\pic18f4550.h"
   288                           ECCP1CON equ 0FBDh ;# 
   289  0000                     # 6491 "C:\Program Files (x86)\Microchip\xc8\v2.00\pic\include\pic18f4550.h"
   290                           CCPR1 equ 0FBEh ;# 
   291  0000                     # 6498 "C:\Program Files (x86)\Microchip\xc8\v2.00\pic\include\pic18f4550.h"
   292                           CCPR1L equ 0FBEh ;# 
   293  0000                     # 6505 "C:\Program Files (x86)\Microchip\xc8\v2.00\pic\include\pic18f4550.h"
   294                           CCPR1H equ 0FBFh ;# 
   295  0000                     # 6512 "C:\Program Files (x86)\Microchip\xc8\v2.00\pic\include\pic18f4550.h"
   296                           ADCON2 equ 0FC0h ;# 
   297  0000                     # 6583 "C:\Program Files (x86)\Microchip\xc8\v2.00\pic\include\pic18f4550.h"
   298                           ADCON1 equ 0FC1h ;# 
   299  0000                     # 6668 "C:\Program Files (x86)\Microchip\xc8\v2.00\pic\include\pic18f4550.h"
   300                           ADCON0 equ 0FC2h ;# 
   301  0000                     # 6787 "C:\Program Files (x86)\Microchip\xc8\v2.00\pic\include\pic18f4550.h"
   302                           ADRES equ 0FC3h ;# 
   303  0000                     # 6794 "C:\Program Files (x86)\Microchip\xc8\v2.00\pic\include\pic18f4550.h"
   304                           ADRESL equ 0FC3h ;# 
   305  0000                     # 6801 "C:\Program Files (x86)\Microchip\xc8\v2.00\pic\include\pic18f4550.h"
   306                           ADRESH equ 0FC4h ;# 
   307  0000                     # 6808 "C:\Program Files (x86)\Microchip\xc8\v2.00\pic\include\pic18f4550.h"
   308                           SSPCON2 equ 0FC5h ;# 
   309  0000                     # 6870 "C:\Program Files (x86)\Microchip\xc8\v2.00\pic\include\pic18f4550.h"
   310                           SSPCON1 equ 0FC6h ;# 
   311  0000                     # 6940 "C:\Program Files (x86)\Microchip\xc8\v2.00\pic\include\pic18f4550.h"
   312                           SSPSTAT equ 0FC7h ;# 
   313  0000                     # 7188 "C:\Program Files (x86)\Microchip\xc8\v2.00\pic\include\pic18f4550.h"
   314                           SSPADD equ 0FC8h ;# 
   315  0000                     # 7195 "C:\Program Files (x86)\Microchip\xc8\v2.00\pic\include\pic18f4550.h"
   316                           SSPBUF equ 0FC9h ;# 
   317  0000                     # 7202 "C:\Program Files (x86)\Microchip\xc8\v2.00\pic\include\pic18f4550.h"
   318                           T2CON equ 0FCAh ;# 
   319  0000                     # 7300 "C:\Program Files (x86)\Microchip\xc8\v2.00\pic\include\pic18f4550.h"
   320                           PR2 equ 0FCBh ;# 
   321  0000                     # 7305 "C:\Program Files (x86)\Microchip\xc8\v2.00\pic\include\pic18f4550.h"
   322                           MEMCON equ 0FCBh ;# 
   323  0000                     # 7410 "C:\Program Files (x86)\Microchip\xc8\v2.00\pic\include\pic18f4550.h"
   324                           TMR2 equ 0FCCh ;# 
   325  0000                     # 7417 "C:\Program Files (x86)\Microchip\xc8\v2.00\pic\include\pic18f4550.h"
   326                           T1CON equ 0FCDh ;# 
   327  0000                     # 7520 "C:\Program Files (x86)\Microchip\xc8\v2.00\pic\include\pic18f4550.h"
   328                           TMR1 equ 0FCEh ;# 
   329  0000                     # 7527 "C:\Program Files (x86)\Microchip\xc8\v2.00\pic\include\pic18f4550.h"
   330                           TMR1L equ 0FCEh ;# 
   331  0000                     # 7534 "C:\Program Files (x86)\Microchip\xc8\v2.00\pic\include\pic18f4550.h"
   332                           TMR1H equ 0FCFh ;# 
   333  0000                     # 7541 "C:\Program Files (x86)\Microchip\xc8\v2.00\pic\include\pic18f4550.h"
   334                           RCON equ 0FD0h ;# 
   335  0000                     # 7690 "C:\Program Files (x86)\Microchip\xc8\v2.00\pic\include\pic18f4550.h"
   336                           WDTCON equ 0FD1h ;# 
   337  0000                     # 7718 "C:\Program Files (x86)\Microchip\xc8\v2.00\pic\include\pic18f4550.h"
   338                           HLVDCON equ 0FD2h ;# 
   339  0000                     # 7723 "C:\Program Files (x86)\Microchip\xc8\v2.00\pic\include\pic18f4550.h"
   340                           LVDCON equ 0FD2h ;# 
   341  0000                     # 7988 "C:\Program Files (x86)\Microchip\xc8\v2.00\pic\include\pic18f4550.h"
   342                           OSCCON equ 0FD3h ;# 
   343  0000                     # 8071 "C:\Program Files (x86)\Microchip\xc8\v2.00\pic\include\pic18f4550.h"
   344                           T0CON equ 0FD5h ;# 
   345  0000                     # 8141 "C:\Program Files (x86)\Microchip\xc8\v2.00\pic\include\pic18f4550.h"
   346                           TMR0 equ 0FD6h ;# 
   347  0000                     # 8148 "C:\Program Files (x86)\Microchip\xc8\v2.00\pic\include\pic18f4550.h"
   348                           TMR0L equ 0FD6h ;# 
   349  0000                     # 8155 "C:\Program Files (x86)\Microchip\xc8\v2.00\pic\include\pic18f4550.h"
   350                           TMR0H equ 0FD7h ;# 
   351  0000                     # 8162 "C:\Program Files (x86)\Microchip\xc8\v2.00\pic\include\pic18f4550.h"
   352                           STATUS equ 0FD8h ;# 
   353  0000                     # 8233 "C:\Program Files (x86)\Microchip\xc8\v2.00\pic\include\pic18f4550.h"
   354                           FSR2 equ 0FD9h ;# 
   355  0000                     # 8240 "C:\Program Files (x86)\Microchip\xc8\v2.00\pic\include\pic18f4550.h"
   356                           FSR2L equ 0FD9h ;# 
   357  0000                     # 8247 "C:\Program Files (x86)\Microchip\xc8\v2.00\pic\include\pic18f4550.h"
   358                           FSR2H equ 0FDAh ;# 
   359  0000                     # 8254 "C:\Program Files (x86)\Microchip\xc8\v2.00\pic\include\pic18f4550.h"
   360                           PLUSW2 equ 0FDBh ;# 
   361  0000                     # 8261 "C:\Program Files (x86)\Microchip\xc8\v2.00\pic\include\pic18f4550.h"
   362                           PREINC2 equ 0FDCh ;# 
   363  0000                     # 8268 "C:\Program Files (x86)\Microchip\xc8\v2.00\pic\include\pic18f4550.h"
   364                           POSTDEC2 equ 0FDDh ;# 
   365  0000                     # 8275 "C:\Program Files (x86)\Microchip\xc8\v2.00\pic\include\pic18f4550.h"
   366                           POSTINC2 equ 0FDEh ;# 
   367  0000                     # 8282 "C:\Program Files (x86)\Microchip\xc8\v2.00\pic\include\pic18f4550.h"
   368                           INDF2 equ 0FDFh ;# 
   369  0000                     # 8289 "C:\Program Files (x86)\Microchip\xc8\v2.00\pic\include\pic18f4550.h"
   370                           BSR equ 0FE0h ;# 
   371  0000                     # 8296 "C:\Program Files (x86)\Microchip\xc8\v2.00\pic\include\pic18f4550.h"
   372                           FSR1 equ 0FE1h ;# 
   373  0000                     # 8303 "C:\Program Files (x86)\Microchip\xc8\v2.00\pic\include\pic18f4550.h"
   374                           FSR1L equ 0FE1h ;# 
   375  0000                     # 8310 "C:\Program Files (x86)\Microchip\xc8\v2.00\pic\include\pic18f4550.h"
   376                           FSR1H equ 0FE2h ;# 
   377  0000                     # 8317 "C:\Program Files (x86)\Microchip\xc8\v2.00\pic\include\pic18f4550.h"
   378                           PLUSW1 equ 0FE3h ;# 
   379  0000                     # 8324 "C:\Program Files (x86)\Microchip\xc8\v2.00\pic\include\pic18f4550.h"
   380                           PREINC1 equ 0FE4h ;# 
   381  0000                     # 8331 "C:\Program Files (x86)\Microchip\xc8\v2.00\pic\include\pic18f4550.h"
   382                           POSTDEC1 equ 0FE5h ;# 
   383  0000                     # 8338 "C:\Program Files (x86)\Microchip\xc8\v2.00\pic\include\pic18f4550.h"
   384                           POSTINC1 equ 0FE6h ;# 
   385  0000                     # 8345 "C:\Program Files (x86)\Microchip\xc8\v2.00\pic\include\pic18f4550.h"
   386                           INDF1 equ 0FE7h ;# 
   387  0000                     # 8352 "C:\Program Files (x86)\Microchip\xc8\v2.00\pic\include\pic18f4550.h"
   388                           WREG equ 0FE8h ;# 
   389  0000                     # 8359 "C:\Program Files (x86)\Microchip\xc8\v2.00\pic\include\pic18f4550.h"
   390                           FSR0 equ 0FE9h ;# 
   391  0000                     # 8366 "C:\Program Files (x86)\Microchip\xc8\v2.00\pic\include\pic18f4550.h"
   392                           FSR0L equ 0FE9h ;# 
   393  0000                     # 8373 "C:\Program Files (x86)\Microchip\xc8\v2.00\pic\include\pic18f4550.h"
   394                           FSR0H equ 0FEAh ;# 
   395  0000                     # 8380 "C:\Program Files (x86)\Microchip\xc8\v2.00\pic\include\pic18f4550.h"
   396                           PLUSW0 equ 0FEBh ;# 
   397  0000                     # 8387 "C:\Program Files (x86)\Microchip\xc8\v2.00\pic\include\pic18f4550.h"
   398                           PREINC0 equ 0FECh ;# 
   399  0000                     # 8394 "C:\Program Files (x86)\Microchip\xc8\v2.00\pic\include\pic18f4550.h"
   400                           POSTDEC0 equ 0FEDh ;# 
   401  0000                     # 8401 "C:\Program Files (x86)\Microchip\xc8\v2.00\pic\include\pic18f4550.h"
   402                           POSTINC0 equ 0FEEh ;# 
   403  0000                     # 8408 "C:\Program Files (x86)\Microchip\xc8\v2.00\pic\include\pic18f4550.h"
   404                           INDF0 equ 0FEFh ;# 
   405  0000                     # 8415 "C:\Program Files (x86)\Microchip\xc8\v2.00\pic\include\pic18f4550.h"
   406                           INTCON3 equ 0FF0h ;# 
   407  0000                     # 8507 "C:\Program Files (x86)\Microchip\xc8\v2.00\pic\include\pic18f4550.h"
   408                           INTCON2 equ 0FF1h ;# 
   409  0000                     # 8584 "C:\Program Files (x86)\Microchip\xc8\v2.00\pic\include\pic18f4550.h"
   410                           INTCON equ 0FF2h ;# 
   411  0000                     # 8701 "C:\Program Files (x86)\Microchip\xc8\v2.00\pic\include\pic18f4550.h"
   412                           PROD equ 0FF3h ;# 
   413  0000                     # 8708 "C:\Program Files (x86)\Microchip\xc8\v2.00\pic\include\pic18f4550.h"
   414                           PRODL equ 0FF3h ;# 
   415  0000                     # 8715 "C:\Program Files (x86)\Microchip\xc8\v2.00\pic\include\pic18f4550.h"
   416                           PRODH equ 0FF4h ;# 
   417  0000                     # 8722 "C:\Program Files (x86)\Microchip\xc8\v2.00\pic\include\pic18f4550.h"
   418                           TABLAT equ 0FF5h ;# 
   419  0000                     # 8731 "C:\Program Files (x86)\Microchip\xc8\v2.00\pic\include\pic18f4550.h"
   420                           TBLPTR equ 0FF6h ;# 
   421  0000                     # 8738 "C:\Program Files (x86)\Microchip\xc8\v2.00\pic\include\pic18f4550.h"
   422                           TBLPTRL equ 0FF6h ;# 
   423  0000                     # 8745 "C:\Program Files (x86)\Microchip\xc8\v2.00\pic\include\pic18f4550.h"
   424                           TBLPTRH equ 0FF7h ;# 
   425  0000                     # 8752 "C:\Program Files (x86)\Microchip\xc8\v2.00\pic\include\pic18f4550.h"
   426                           TBLPTRU equ 0FF8h ;# 
   427  0000                     # 8761 "C:\Program Files (x86)\Microchip\xc8\v2.00\pic\include\pic18f4550.h"
   428                           PCLAT equ 0FF9h ;# 
   429  0000                     # 8768 "C:\Program Files (x86)\Microchip\xc8\v2.00\pic\include\pic18f4550.h"
   430                           PC equ 0FF9h ;# 
   431  0000                     # 8775 "C:\Program Files (x86)\Microchip\xc8\v2.00\pic\include\pic18f4550.h"
   432                           PCL equ 0FF9h ;# 
   433  0000                     # 8782 "C:\Program Files (x86)\Microchip\xc8\v2.00\pic\include\pic18f4550.h"
   434                           PCLATH equ 0FFAh ;# 
   435  0000                     # 8789 "C:\Program Files (x86)\Microchip\xc8\v2.00\pic\include\pic18f4550.h"
   436                           PCLATU equ 0FFBh ;# 
   437  0000                     # 8796 "C:\Program Files (x86)\Microchip\xc8\v2.00\pic\include\pic18f4550.h"
   438                           STKPTR equ 0FFCh ;# 
   439  0000                     # 8872 "C:\Program Files (x86)\Microchip\xc8\v2.00\pic\include\pic18f4550.h"
   440                           TOS equ 0FFDh ;# 
   441  0000                     # 8879 "C:\Program Files (x86)\Microchip\xc8\v2.00\pic\include\pic18f4550.h"
   442                           TOSL equ 0FFDh ;# 
   443  0000                     # 8886 "C:\Program Files (x86)\Microchip\xc8\v2.00\pic\include\pic18f4550.h"
   444                           TOSH equ 0FFEh ;# 
   445  0000                     # 8893 "C:\Program Files (x86)\Microchip\xc8\v2.00\pic\include\pic18f4550.h"
   446                           TOSU equ 0FFFh ;# 
   447  0000                     # 54 "C:\Program Files (x86)\Microchip\xc8\v2.00\pic\include\pic18f4550.h"
   448                           SPPDATA equ 0F62h ;# 
   449  0000                     # 74 "C:\Program Files (x86)\Microchip\xc8\v2.00\pic\include\pic18f4550.h"
   450                           SPPCFG equ 0F63h ;# 
   451  0000                     # 151 "C:\Program Files (x86)\Microchip\xc8\v2.00\pic\include\pic18f4550.h"
   452                           SPPEPS equ 0F64h ;# 
   453  0000                     # 225 "C:\Program Files (x86)\Microchip\xc8\v2.00\pic\include\pic18f4550.h"
   454                           SPPCON equ 0F65h ;# 
   455  0000                     # 251 "C:\Program Files (x86)\Microchip\xc8\v2.00\pic\include\pic18f4550.h"
   456                           UFRM equ 0F66h ;# 
   457  0000                     # 258 "C:\Program Files (x86)\Microchip\xc8\v2.00\pic\include\pic18f4550.h"
   458                           UFRML equ 0F66h ;# 
   459  0000                     # 336 "C:\Program Files (x86)\Microchip\xc8\v2.00\pic\include\pic18f4550.h"
   460                           UFRMH equ 0F67h ;# 
   461  0000                     # 376 "C:\Program Files (x86)\Microchip\xc8\v2.00\pic\include\pic18f4550.h"
   462                           UIR equ 0F68h ;# 
   463  0000                     # 432 "C:\Program Files (x86)\Microchip\xc8\v2.00\pic\include\pic18f4550.h"
   464                           UIE equ 0F69h ;# 
   465  0000                     # 488 "C:\Program Files (x86)\Microchip\xc8\v2.00\pic\include\pic18f4550.h"
   466                           UEIR equ 0F6Ah ;# 
   467  0000                     # 539 "C:\Program Files (x86)\Microchip\xc8\v2.00\pic\include\pic18f4550.h"
   468                           UEIE equ 0F6Bh ;# 
   469  0000                     # 590 "C:\Program Files (x86)\Microchip\xc8\v2.00\pic\include\pic18f4550.h"
   470                           USTAT equ 0F6Ch ;# 
   471  0000                     # 650 "C:\Program Files (x86)\Microchip\xc8\v2.00\pic\include\pic18f4550.h"
   472                           UCON equ 0F6Dh ;# 
   473  0000                     # 701 "C:\Program Files (x86)\Microchip\xc8\v2.00\pic\include\pic18f4550.h"
   474                           UADDR equ 0F6Eh ;# 
   475  0000                     # 765 "C:\Program Files (x86)\Microchip\xc8\v2.00\pic\include\pic18f4550.h"
   476                           UCFG equ 0F6Fh ;# 
   477  0000                     # 844 "C:\Program Files (x86)\Microchip\xc8\v2.00\pic\include\pic18f4550.h"
   478                           UEP0 equ 0F70h ;# 
   479  0000                     # 952 "C:\Program Files (x86)\Microchip\xc8\v2.00\pic\include\pic18f4550.h"
   480                           UEP1 equ 0F71h ;# 
   481  0000                     # 1060 "C:\Program Files (x86)\Microchip\xc8\v2.00\pic\include\pic18f4550.h"
   482                           UEP2 equ 0F72h ;# 
   483  0000                     # 1168 "C:\Program Files (x86)\Microchip\xc8\v2.00\pic\include\pic18f4550.h"
   484                           UEP3 equ 0F73h ;# 
   485  0000                     # 1276 "C:\Program Files (x86)\Microchip\xc8\v2.00\pic\include\pic18f4550.h"
   486                           UEP4 equ 0F74h ;# 
   487  0000                     # 1384 "C:\Program Files (x86)\Microchip\xc8\v2.00\pic\include\pic18f4550.h"
   488                           UEP5 equ 0F75h ;# 
   489  0000                     # 1492 "C:\Program Files (x86)\Microchip\xc8\v2.00\pic\include\pic18f4550.h"
   490                           UEP6 equ 0F76h ;# 
   491  0000                     # 1600 "C:\Program Files (x86)\Microchip\xc8\v2.00\pic\include\pic18f4550.h"
   492                           UEP7 equ 0F77h ;# 
   493  0000                     # 1708 "C:\Program Files (x86)\Microchip\xc8\v2.00\pic\include\pic18f4550.h"
   494                           UEP8 equ 0F78h ;# 
   495  0000                     # 1784 "C:\Program Files (x86)\Microchip\xc8\v2.00\pic\include\pic18f4550.h"
   496                           UEP9 equ 0F79h ;# 
   497  0000                     # 1860 "C:\Program Files (x86)\Microchip\xc8\v2.00\pic\include\pic18f4550.h"
   498                           UEP10 equ 0F7Ah ;# 
   499  0000                     # 1936 "C:\Program Files (x86)\Microchip\xc8\v2.00\pic\include\pic18f4550.h"
   500                           UEP11 equ 0F7Bh ;# 
   501  0000                     # 2012 "C:\Program Files (x86)\Microchip\xc8\v2.00\pic\include\pic18f4550.h"
   502                           UEP12 equ 0F7Ch ;# 
   503  0000                     # 2088 "C:\Program Files (x86)\Microchip\xc8\v2.00\pic\include\pic18f4550.h"
   504                           UEP13 equ 0F7Dh ;# 
   505  0000                     # 2164 "C:\Program Files (x86)\Microchip\xc8\v2.00\pic\include\pic18f4550.h"
   506                           UEP14 equ 0F7Eh ;# 
   507  0000                     # 2240 "C:\Program Files (x86)\Microchip\xc8\v2.00\pic\include\pic18f4550.h"
   508                           UEP15 equ 0F7Fh ;# 
   509  0000                     # 2316 "C:\Program Files (x86)\Microchip\xc8\v2.00\pic\include\pic18f4550.h"
   510                           PORTA equ 0F80h ;# 
   511  0000                     # 2455 "C:\Program Files (x86)\Microchip\xc8\v2.00\pic\include\pic18f4550.h"
   512                           PORTB equ 0F81h ;# 
   513  0000                     # 2565 "C:\Program Files (x86)\Microchip\xc8\v2.00\pic\include\pic18f4550.h"
   514                           PORTC equ 0F82h ;# 
   515  0000                     # 2707 "C:\Program Files (x86)\Microchip\xc8\v2.00\pic\include\pic18f4550.h"
   516                           PORTD equ 0F83h ;# 
   517  0000                     # 2828 "C:\Program Files (x86)\Microchip\xc8\v2.00\pic\include\pic18f4550.h"
   518                           PORTE equ 0F84h ;# 
   519  0000                     # 2975 "C:\Program Files (x86)\Microchip\xc8\v2.00\pic\include\pic18f4550.h"
   520                           LATA equ 0F89h ;# 
   521  0000                     # 3075 "C:\Program Files (x86)\Microchip\xc8\v2.00\pic\include\pic18f4550.h"
   522                           LATB equ 0F8Ah ;# 
   523  0000                     # 3187 "C:\Program Files (x86)\Microchip\xc8\v2.00\pic\include\pic18f4550.h"
   524                           LATC equ 0F8Bh ;# 
   525  0000                     # 3265 "C:\Program Files (x86)\Microchip\xc8\v2.00\pic\include\pic18f4550.h"
   526                           LATD equ 0F8Ch ;# 
   527  0000                     # 3377 "C:\Program Files (x86)\Microchip\xc8\v2.00\pic\include\pic18f4550.h"
   528                           LATE equ 0F8Dh ;# 
   529  0000                     # 3429 "C:\Program Files (x86)\Microchip\xc8\v2.00\pic\include\pic18f4550.h"
   530                           TRISA equ 0F92h ;# 
   531  0000                     # 3434 "C:\Program Files (x86)\Microchip\xc8\v2.00\pic\include\pic18f4550.h"
   532                           DDRA equ 0F92h ;# 
   533  0000                     # 3627 "C:\Program Files (x86)\Microchip\xc8\v2.00\pic\include\pic18f4550.h"
   534                           TRISB equ 0F93h ;# 
   535  0000                     # 3632 "C:\Program Files (x86)\Microchip\xc8\v2.00\pic\include\pic18f4550.h"
   536                           DDRB equ 0F93h ;# 
   537  0000                     # 3849 "C:\Program Files (x86)\Microchip\xc8\v2.00\pic\include\pic18f4550.h"
   538                           TRISC equ 0F94h ;# 
   539  0000                     # 3854 "C:\Program Files (x86)\Microchip\xc8\v2.00\pic\include\pic18f4550.h"
   540                           DDRC equ 0F94h ;# 
   541  0000                     # 4003 "C:\Program Files (x86)\Microchip\xc8\v2.00\pic\include\pic18f4550.h"
   542                           TRISD equ 0F95h ;# 
   543  0000                     # 4008 "C:\Program Files (x86)\Microchip\xc8\v2.00\pic\include\pic18f4550.h"
   544                           DDRD equ 0F95h ;# 
   545  0000                     # 4225 "C:\Program Files (x86)\Microchip\xc8\v2.00\pic\include\pic18f4550.h"
   546                           TRISE equ 0F96h ;# 
   547  0000                     # 4230 "C:\Program Files (x86)\Microchip\xc8\v2.00\pic\include\pic18f4550.h"
   548                           DDRE equ 0F96h ;# 
   549  0000                     # 4327 "C:\Program Files (x86)\Microchip\xc8\v2.00\pic\include\pic18f4550.h"
   550                           OSCTUNE equ 0F9Bh ;# 
   551  0000                     # 4386 "C:\Program Files (x86)\Microchip\xc8\v2.00\pic\include\pic18f4550.h"
   552                           PIE1 equ 0F9Dh ;# 
   553  0000                     # 4470 "C:\Program Files (x86)\Microchip\xc8\v2.00\pic\include\pic18f4550.h"
   554                           PIR1 equ 0F9Eh ;# 
   555  0000                     # 4554 "C:\Program Files (x86)\Microchip\xc8\v2.00\pic\include\pic18f4550.h"
   556                           IPR1 equ 0F9Fh ;# 
   557  0000                     # 4638 "C:\Program Files (x86)\Microchip\xc8\v2.00\pic\include\pic18f4550.h"
   558                           PIE2 equ 0FA0h ;# 
   559  0000                     # 4709 "C:\Program Files (x86)\Microchip\xc8\v2.00\pic\include\pic18f4550.h"
   560                           PIR2 equ 0FA1h ;# 
   561  0000                     # 4780 "C:\Program Files (x86)\Microchip\xc8\v2.00\pic\include\pic18f4550.h"
   562                           IPR2 equ 0FA2h ;# 
   563  0000                     # 4851 "C:\Program Files (x86)\Microchip\xc8\v2.00\pic\include\pic18f4550.h"
   564                           EECON1 equ 0FA6h ;# 
   565  0000                     # 4917 "C:\Program Files (x86)\Microchip\xc8\v2.00\pic\include\pic18f4550.h"
   566                           EECON2 equ 0FA7h ;# 
   567  0000                     # 4924 "C:\Program Files (x86)\Microchip\xc8\v2.00\pic\include\pic18f4550.h"
   568                           EEDATA equ 0FA8h ;# 
   569  0000                     # 4931 "C:\Program Files (x86)\Microchip\xc8\v2.00\pic\include\pic18f4550.h"
   570                           EEADR equ 0FA9h ;# 
   571  0000                     # 4938 "C:\Program Files (x86)\Microchip\xc8\v2.00\pic\include\pic18f4550.h"
   572                           RCSTA equ 0FABh ;# 
   573  0000                     # 4943 "C:\Program Files (x86)\Microchip\xc8\v2.00\pic\include\pic18f4550.h"
   574                           RCSTA1 equ 0FABh ;# 
   575  0000                     # 5148 "C:\Program Files (x86)\Microchip\xc8\v2.00\pic\include\pic18f4550.h"
   576                           TXSTA equ 0FACh ;# 
   577  0000                     # 5153 "C:\Program Files (x86)\Microchip\xc8\v2.00\pic\include\pic18f4550.h"
   578                           TXSTA1 equ 0FACh ;# 
   579  0000                     # 5404 "C:\Program Files (x86)\Microchip\xc8\v2.00\pic\include\pic18f4550.h"
   580                           TXREG equ 0FADh ;# 
   581  0000                     # 5409 "C:\Program Files (x86)\Microchip\xc8\v2.00\pic\include\pic18f4550.h"
   582                           TXREG1 equ 0FADh ;# 
   583  0000                     # 5416 "C:\Program Files (x86)\Microchip\xc8\v2.00\pic\include\pic18f4550.h"
   584                           RCREG equ 0FAEh ;# 
   585  0000                     # 5421 "C:\Program Files (x86)\Microchip\xc8\v2.00\pic\include\pic18f4550.h"
   586                           RCREG1 equ 0FAEh ;# 
   587  0000                     # 5428 "C:\Program Files (x86)\Microchip\xc8\v2.00\pic\include\pic18f4550.h"
   588                           SPBRG equ 0FAFh ;# 
   589  0000                     # 5433 "C:\Program Files (x86)\Microchip\xc8\v2.00\pic\include\pic18f4550.h"
   590                           SPBRG1 equ 0FAFh ;# 
   591  0000                     # 5440 "C:\Program Files (x86)\Microchip\xc8\v2.00\pic\include\pic18f4550.h"
   592                           SPBRGH equ 0FB0h ;# 
   593  0000                     # 5447 "C:\Program Files (x86)\Microchip\xc8\v2.00\pic\include\pic18f4550.h"
   594                           T3CON equ 0FB1h ;# 
   595  0000                     # 5568 "C:\Program Files (x86)\Microchip\xc8\v2.00\pic\include\pic18f4550.h"
   596                           TMR3 equ 0FB2h ;# 
   597  0000                     # 5575 "C:\Program Files (x86)\Microchip\xc8\v2.00\pic\include\pic18f4550.h"
   598                           TMR3L equ 0FB2h ;# 
   599  0000                     # 5582 "C:\Program Files (x86)\Microchip\xc8\v2.00\pic\include\pic18f4550.h"
   600                           TMR3H equ 0FB3h ;# 
   601  0000                     # 5589 "C:\Program Files (x86)\Microchip\xc8\v2.00\pic\include\pic18f4550.h"
   602                           CMCON equ 0FB4h ;# 
   603  0000                     # 5679 "C:\Program Files (x86)\Microchip\xc8\v2.00\pic\include\pic18f4550.h"
   604                           CVRCON equ 0FB5h ;# 
   605  0000                     # 5764 "C:\Program Files (x86)\Microchip\xc8\v2.00\pic\include\pic18f4550.h"
   606                           ECCP1AS equ 0FB6h ;# 
   607  0000                     # 5769 "C:\Program Files (x86)\Microchip\xc8\v2.00\pic\include\pic18f4550.h"
   608                           CCP1AS equ 0FB6h ;# 
   609  0000                     # 5926 "C:\Program Files (x86)\Microchip\xc8\v2.00\pic\include\pic18f4550.h"
   610                           ECCP1DEL equ 0FB7h ;# 
   611  0000                     # 5931 "C:\Program Files (x86)\Microchip\xc8\v2.00\pic\include\pic18f4550.h"
   612                           CCP1DEL equ 0FB7h ;# 
   613  0000                     # 6064 "C:\Program Files (x86)\Microchip\xc8\v2.00\pic\include\pic18f4550.h"
   614                           BAUDCON equ 0FB8h ;# 
   615  0000                     # 6069 "C:\Program Files (x86)\Microchip\xc8\v2.00\pic\include\pic18f4550.h"
   616                           BAUDCTL equ 0FB8h ;# 
   617  0000                     # 6244 "C:\Program Files (x86)\Microchip\xc8\v2.00\pic\include\pic18f4550.h"
   618                           CCP2CON equ 0FBAh ;# 
   619  0000                     # 6308 "C:\Program Files (x86)\Microchip\xc8\v2.00\pic\include\pic18f4550.h"
   620                           CCPR2 equ 0FBBh ;# 
   621  0000                     # 6315 "C:\Program Files (x86)\Microchip\xc8\v2.00\pic\include\pic18f4550.h"
   622                           CCPR2L equ 0FBBh ;# 
   623  0000                     # 6322 "C:\Program Files (x86)\Microchip\xc8\v2.00\pic\include\pic18f4550.h"
   624                           CCPR2H equ 0FBCh ;# 
   625  0000                     # 6329 "C:\Program Files (x86)\Microchip\xc8\v2.00\pic\include\pic18f4550.h"
   626                           CCP1CON equ 0FBDh ;# 
   627  0000                     # 6334 "C:\Program Files (x86)\Microchip\xc8\v2.00\pic\include\pic18f4550.h"
   628                           ECCP1CON equ 0FBDh ;# 
   629  0000                     # 6491 "C:\Program Files (x86)\Microchip\xc8\v2.00\pic\include\pic18f4550.h"
   630                           CCPR1 equ 0FBEh ;# 
   631  0000                     # 6498 "C:\Program Files (x86)\Microchip\xc8\v2.00\pic\include\pic18f4550.h"
   632                           CCPR1L equ 0FBEh ;# 
   633  0000                     # 6505 "C:\Program Files (x86)\Microchip\xc8\v2.00\pic\include\pic18f4550.h"
   634                           CCPR1H equ 0FBFh ;# 
   635  0000                     # 6512 "C:\Program Files (x86)\Microchip\xc8\v2.00\pic\include\pic18f4550.h"
   636                           ADCON2 equ 0FC0h ;# 
   637  0000                     # 6583 "C:\Program Files (x86)\Microchip\xc8\v2.00\pic\include\pic18f4550.h"
   638                           ADCON1 equ 0FC1h ;# 
   639  0000                     # 6668 "C:\Program Files (x86)\Microchip\xc8\v2.00\pic\include\pic18f4550.h"
   640                           ADCON0 equ 0FC2h ;# 
   641  0000                     # 6787 "C:\Program Files (x86)\Microchip\xc8\v2.00\pic\include\pic18f4550.h"
   642                           ADRES equ 0FC3h ;# 
   643  0000                     # 6794 "C:\Program Files (x86)\Microchip\xc8\v2.00\pic\include\pic18f4550.h"
   644                           ADRESL equ 0FC3h ;# 
   645  0000                     # 6801 "C:\Program Files (x86)\Microchip\xc8\v2.00\pic\include\pic18f4550.h"
   646                           ADRESH equ 0FC4h ;# 
   647  0000                     # 6808 "C:\Program Files (x86)\Microchip\xc8\v2.00\pic\include\pic18f4550.h"
   648                           SSPCON2 equ 0FC5h ;# 
   649  0000                     # 6870 "C:\Program Files (x86)\Microchip\xc8\v2.00\pic\include\pic18f4550.h"
   650                           SSPCON1 equ 0FC6h ;# 
   651  0000                     # 6940 "C:\Program Files (x86)\Microchip\xc8\v2.00\pic\include\pic18f4550.h"
   652                           SSPSTAT equ 0FC7h ;# 
   653  0000                     # 7188 "C:\Program Files (x86)\Microchip\xc8\v2.00\pic\include\pic18f4550.h"
   654                           SSPADD equ 0FC8h ;# 
   655  0000                     # 7195 "C:\Program Files (x86)\Microchip\xc8\v2.00\pic\include\pic18f4550.h"
   656                           SSPBUF equ 0FC9h ;# 
   657  0000                     # 7202 "C:\Program Files (x86)\Microchip\xc8\v2.00\pic\include\pic18f4550.h"
   658                           T2CON equ 0FCAh ;# 
   659  0000                     # 7300 "C:\Program Files (x86)\Microchip\xc8\v2.00\pic\include\pic18f4550.h"
   660                           PR2 equ 0FCBh ;# 
   661  0000                     # 7305 "C:\Program Files (x86)\Microchip\xc8\v2.00\pic\include\pic18f4550.h"
   662                           MEMCON equ 0FCBh ;# 
   663  0000                     # 7410 "C:\Program Files (x86)\Microchip\xc8\v2.00\pic\include\pic18f4550.h"
   664                           TMR2 equ 0FCCh ;# 
   665  0000                     # 7417 "C:\Program Files (x86)\Microchip\xc8\v2.00\pic\include\pic18f4550.h"
   666                           T1CON equ 0FCDh ;# 
   667  0000                     # 7520 "C:\Program Files (x86)\Microchip\xc8\v2.00\pic\include\pic18f4550.h"
   668                           TMR1 equ 0FCEh ;# 
   669  0000                     # 7527 "C:\Program Files (x86)\Microchip\xc8\v2.00\pic\include\pic18f4550.h"
   670                           TMR1L equ 0FCEh ;# 
   671  0000                     # 7534 "C:\Program Files (x86)\Microchip\xc8\v2.00\pic\include\pic18f4550.h"
   672                           TMR1H equ 0FCFh ;# 
   673  0000                     # 7541 "C:\Program Files (x86)\Microchip\xc8\v2.00\pic\include\pic18f4550.h"
   674                           RCON equ 0FD0h ;# 
   675  0000                     # 7690 "C:\Program Files (x86)\Microchip\xc8\v2.00\pic\include\pic18f4550.h"
   676                           WDTCON equ 0FD1h ;# 
   677  0000                     # 7718 "C:\Program Files (x86)\Microchip\xc8\v2.00\pic\include\pic18f4550.h"
   678                           HLVDCON equ 0FD2h ;# 
   679  0000                     # 7723 "C:\Program Files (x86)\Microchip\xc8\v2.00\pic\include\pic18f4550.h"
   680                           LVDCON equ 0FD2h ;# 
   681  0000                     # 7988 "C:\Program Files (x86)\Microchip\xc8\v2.00\pic\include\pic18f4550.h"
   682                           OSCCON equ 0FD3h ;# 
   683  0000                     # 8071 "C:\Program Files (x86)\Microchip\xc8\v2.00\pic\include\pic18f4550.h"
   684                           T0CON equ 0FD5h ;# 
   685  0000                     # 8141 "C:\Program Files (x86)\Microchip\xc8\v2.00\pic\include\pic18f4550.h"
   686                           TMR0 equ 0FD6h ;# 
   687  0000                     # 8148 "C:\Program Files (x86)\Microchip\xc8\v2.00\pic\include\pic18f4550.h"
   688                           TMR0L equ 0FD6h ;# 
   689  0000                     # 8155 "C:\Program Files (x86)\Microchip\xc8\v2.00\pic\include\pic18f4550.h"
   690                           TMR0H equ 0FD7h ;# 
   691  0000                     # 8162 "C:\Program Files (x86)\Microchip\xc8\v2.00\pic\include\pic18f4550.h"
   692                           STATUS equ 0FD8h ;# 
   693  0000                     # 8233 "C:\Program Files (x86)\Microchip\xc8\v2.00\pic\include\pic18f4550.h"
   694                           FSR2 equ 0FD9h ;# 
   695  0000                     # 8240 "C:\Program Files (x86)\Microchip\xc8\v2.00\pic\include\pic18f4550.h"
   696                           FSR2L equ 0FD9h ;# 
   697  0000                     # 8247 "C:\Program Files (x86)\Microchip\xc8\v2.00\pic\include\pic18f4550.h"
   698                           FSR2H equ 0FDAh ;# 
   699  0000                     # 8254 "C:\Program Files (x86)\Microchip\xc8\v2.00\pic\include\pic18f4550.h"
   700                           PLUSW2 equ 0FDBh ;# 
   701  0000                     # 8261 "C:\Program Files (x86)\Microchip\xc8\v2.00\pic\include\pic18f4550.h"
   702                           PREINC2 equ 0FDCh ;# 
   703  0000                     # 8268 "C:\Program Files (x86)\Microchip\xc8\v2.00\pic\include\pic18f4550.h"
   704                           POSTDEC2 equ 0FDDh ;# 
   705  0000                     # 8275 "C:\Program Files (x86)\Microchip\xc8\v2.00\pic\include\pic18f4550.h"
   706                           POSTINC2 equ 0FDEh ;# 
   707  0000                     # 8282 "C:\Program Files (x86)\Microchip\xc8\v2.00\pic\include\pic18f4550.h"
   708                           INDF2 equ 0FDFh ;# 
   709  0000                     # 8289 "C:\Program Files (x86)\Microchip\xc8\v2.00\pic\include\pic18f4550.h"
   710                           BSR equ 0FE0h ;# 
   711  0000                     # 8296 "C:\Program Files (x86)\Microchip\xc8\v2.00\pic\include\pic18f4550.h"
   712                           FSR1 equ 0FE1h ;# 
   713  0000                     # 8303 "C:\Program Files (x86)\Microchip\xc8\v2.00\pic\include\pic18f4550.h"
   714                           FSR1L equ 0FE1h ;# 
   715  0000                     # 8310 "C:\Program Files (x86)\Microchip\xc8\v2.00\pic\include\pic18f4550.h"
   716                           FSR1H equ 0FE2h ;# 
   717  0000                     # 8317 "C:\Program Files (x86)\Microchip\xc8\v2.00\pic\include\pic18f4550.h"
   718                           PLUSW1 equ 0FE3h ;# 
   719  0000                     # 8324 "C:\Program Files (x86)\Microchip\xc8\v2.00\pic\include\pic18f4550.h"
   720                           PREINC1 equ 0FE4h ;# 
   721  0000                     # 8331 "C:\Program Files (x86)\Microchip\xc8\v2.00\pic\include\pic18f4550.h"
   722                           POSTDEC1 equ 0FE5h ;# 
   723  0000                     # 8338 "C:\Program Files (x86)\Microchip\xc8\v2.00\pic\include\pic18f4550.h"
   724                           POSTINC1 equ 0FE6h ;# 
   725  0000                     # 8345 "C:\Program Files (x86)\Microchip\xc8\v2.00\pic\include\pic18f4550.h"
   726                           INDF1 equ 0FE7h ;# 
   727  0000                     # 8352 "C:\Program Files (x86)\Microchip\xc8\v2.00\pic\include\pic18f4550.h"
   728                           WREG equ 0FE8h ;# 
   729  0000                     # 8359 "C:\Program Files (x86)\Microchip\xc8\v2.00\pic\include\pic18f4550.h"
   730                           FSR0 equ 0FE9h ;# 
   731  0000                     # 8366 "C:\Program Files (x86)\Microchip\xc8\v2.00\pic\include\pic18f4550.h"
   732                           FSR0L equ 0FE9h ;# 
   733  0000                     # 8373 "C:\Program Files (x86)\Microchip\xc8\v2.00\pic\include\pic18f4550.h"
   734                           FSR0H equ 0FEAh ;# 
   735  0000                     # 8380 "C:\Program Files (x86)\Microchip\xc8\v2.00\pic\include\pic18f4550.h"
   736                           PLUSW0 equ 0FEBh ;# 
   737  0000                     # 8387 "C:\Program Files (x86)\Microchip\xc8\v2.00\pic\include\pic18f4550.h"
   738                           PREINC0 equ 0FECh ;# 
   739  0000                     # 8394 "C:\Program Files (x86)\Microchip\xc8\v2.00\pic\include\pic18f4550.h"
   740                           POSTDEC0 equ 0FEDh ;# 
   741  0000                     # 8401 "C:\Program Files (x86)\Microchip\xc8\v2.00\pic\include\pic18f4550.h"
   742                           POSTINC0 equ 0FEEh ;# 
   743  0000                     # 8408 "C:\Program Files (x86)\Microchip\xc8\v2.00\pic\include\pic18f4550.h"
   744                           INDF0 equ 0FEFh ;# 
   745  0000                     # 8415 "C:\Program Files (x86)\Microchip\xc8\v2.00\pic\include\pic18f4550.h"
   746                           INTCON3 equ 0FF0h ;# 
   747  0000                     # 8507 "C:\Program Files (x86)\Microchip\xc8\v2.00\pic\include\pic18f4550.h"
   748                           INTCON2 equ 0FF1h ;# 
   749  0000                     # 8584 "C:\Program Files (x86)\Microchip\xc8\v2.00\pic\include\pic18f4550.h"
   750                           INTCON equ 0FF2h ;# 
   751  0000                     # 8701 "C:\Program Files (x86)\Microchip\xc8\v2.00\pic\include\pic18f4550.h"
   752                           PROD equ 0FF3h ;# 
   753  0000                     # 8708 "C:\Program Files (x86)\Microchip\xc8\v2.00\pic\include\pic18f4550.h"
   754                           PRODL equ 0FF3h ;# 
   755  0000                     # 8715 "C:\Program Files (x86)\Microchip\xc8\v2.00\pic\include\pic18f4550.h"
   756                           PRODH equ 0FF4h ;# 
   757  0000                     # 8722 "C:\Program Files (x86)\Microchip\xc8\v2.00\pic\include\pic18f4550.h"
   758                           TABLAT equ 0FF5h ;# 
   759  0000                     # 8731 "C:\Program Files (x86)\Microchip\xc8\v2.00\pic\include\pic18f4550.h"
   760                           TBLPTR equ 0FF6h ;# 
   761  0000                     # 8738 "C:\Program Files (x86)\Microchip\xc8\v2.00\pic\include\pic18f4550.h"
   762                           TBLPTRL equ 0FF6h ;# 
   763  0000                     # 8745 "C:\Program Files (x86)\Microchip\xc8\v2.00\pic\include\pic18f4550.h"
   764                           TBLPTRH equ 0FF7h ;# 
   765  0000                     # 8752 "C:\Program Files (x86)\Microchip\xc8\v2.00\pic\include\pic18f4550.h"
   766                           TBLPTRU equ 0FF8h ;# 
   767  0000                     # 8761 "C:\Program Files (x86)\Microchip\xc8\v2.00\pic\include\pic18f4550.h"
   768                           PCLAT equ 0FF9h ;# 
   769  0000                     # 8768 "C:\Program Files (x86)\Microchip\xc8\v2.00\pic\include\pic18f4550.h"
   770                           PC equ 0FF9h ;# 
   771  0000                     # 8775 "C:\Program Files (x86)\Microchip\xc8\v2.00\pic\include\pic18f4550.h"
   772                           PCL equ 0FF9h ;# 
   773  0000                     # 8782 "C:\Program Files (x86)\Microchip\xc8\v2.00\pic\include\pic18f4550.h"
   774                           PCLATH equ 0FFAh ;# 
   775  0000                     # 8789 "C:\Program Files (x86)\Microchip\xc8\v2.00\pic\include\pic18f4550.h"
   776                           PCLATU equ 0FFBh ;# 
   777  0000                     # 8796 "C:\Program Files (x86)\Microchip\xc8\v2.00\pic\include\pic18f4550.h"
   778                           STKPTR equ 0FFCh ;# 
   779  0000                     # 8872 "C:\Program Files (x86)\Microchip\xc8\v2.00\pic\include\pic18f4550.h"
   780                           TOS equ 0FFDh ;# 
   781  0000                     # 8879 "C:\Program Files (x86)\Microchip\xc8\v2.00\pic\include\pic18f4550.h"
   782                           TOSL equ 0FFDh ;# 
   783  0000                     # 8886 "C:\Program Files (x86)\Microchip\xc8\v2.00\pic\include\pic18f4550.h"
   784                           TOSH equ 0FFEh ;# 
   785  0000                     # 8893 "C:\Program Files (x86)\Microchip\xc8\v2.00\pic\include\pic18f4550.h"
   786                           TOSU equ 0FFFh ;# 
   787  0000                     	FNCALL	_main,_Forward
   788                           	FNCALL	_main,_Left
   789                           	FNCALL	_main,_Reverse
   790                           	FNCALL	_main,_Right
   791                           	FNCALL	_main,_Stop
   792                           	FNCALL	_main,_TMR1Config
   793                           	FNCALL	_main,_compareSignals
   794                           	FNCALL	_main,_configPIC
   795                           	FNCALL	_main,_getTimeUS
   796                           	FNCALL	_main,_initgetUS
   797                           	FNCALL	_getTimeUS,___lmul
   798                           	FNCALL	_getTimeUS,___xxtofl
   799                           	FNCALL	_compareSignals,_compareChannelDown
   800                           	FNCALL	_compareSignals,_compareChannelUp
   801                           	FNCALL	_compareSignals,_compareTurnOn
   802                           	FNCALL	_compareSignals,_compareVolumeDown
   803                           	FNCALL	_compareSignals,_compareVolumeUp
   804                           	FNCALL	_compareVolumeUp,___fladd
   805                           	FNCALL	_compareVolumeUp,___flge
   806                           	FNCALL	_compareVolumeUp,___flneg
   807                           	FNCALL	_compareVolumeUp,___fltol
   808                           	FNCALL	_compareVolumeDown,___fladd
   809                           	FNCALL	_compareVolumeDown,___flge
   810                           	FNCALL	_compareVolumeDown,___flneg
   811                           	FNCALL	_compareVolumeDown,___fltol
   812                           	FNCALL	_compareTurnOn,___fladd
   813                           	FNCALL	_compareTurnOn,___flge
   814                           	FNCALL	_compareTurnOn,___flneg
   815                           	FNCALL	_compareTurnOn,___fltol
   816                           	FNCALL	_compareChannelUp,___fladd
   817                           	FNCALL	_compareChannelUp,___flge
   818                           	FNCALL	_compareChannelUp,___flneg
   819                           	FNCALL	_compareChannelUp,___fltol
   820                           	FNCALL	_compareChannelDown,___fladd
   821                           	FNCALL	_compareChannelDown,___flge
   822                           	FNCALL	_compareChannelDown,___flneg
   823                           	FNCALL	_compareChannelDown,___fltol
   824                           	FNROOT	_main
   825                           	FNCALL	_isrPlayer1,_sumTmr1Overflow
   826                           	FNCALL	intlevel2,_isrPlayer1
   827                           	global	intlevel2
   828                           	FNROOT	intlevel2
   829                           	global	_enableDOWN
   830                           	global	_index
   831                           	global	_turnOnCode
   832                           	global	_volumeDownCode
   833                           	global	_volumeUpCode
   834                           	global	_channelUpCode
   835                           	global	_channelDownCode
   836                           psect	idataCOMRAM,class=CODE,space=0,delta=1,noexec
   837                           global __pidataCOMRAM
   838                           __pidataCOMRAM:
   839  00239C                     	file	"main.c"
   840                           	line	45
   841                           
   842                           ;initializer for _enableDOWN
   843                           	dw	(01h)&0ffffh
   844  00239C  0001               	line	44
   845                           
   846                           ;initializer for _index
   847                           	dw	(-1)&0ffffh
   848  00239E  FFFF               psect	idataBANK1,class=CODE,space=0,delta=1,noexec
   849                           global __pidataBANK1
   850                           __pidataBANK1:
   851  002074                     	line	47
   852                           
   853                           ;initializer for _turnOnCode
   854                           	dw	(normalize32(0x44634000) & 0ffffh)
   855  002074  4000               	dw	highword (normalize32(0x44634000))
   856  002076  4463               	dw	(normalize32(0x4431c000) & 0ffffh)
   857  002078  C000               	dw	highword (normalize32(0x4431c000))
   858  00207A  4431               	dw	(normalize32(0x44534000) & 0ffffh)
   859  00207C  4000               	dw	highword (normalize32(0x44534000))
   860  00207E  4453               	dw	(normalize32(0x45143000) & 0ffffh)
   861  002080  3000               	dw	highword (normalize32(0x45143000))
   862  002082  4514               	dw	(normalize32(0x44550000) & 0ffffh)
   863  002084  0000               	dw	highword (normalize32(0x44550000))
   864  002086  4455               	dw	(normalize32(0x44310000) & 0ffffh)
   865  002088  0000               	dw	highword (normalize32(0x44310000))
   866  00208A  4431               	dw	(normalize32(0x44534000) & 0ffffh)
   867  00208C  4000               	dw	highword (normalize32(0x44534000))
   868  00208E  4453               	dw	(normalize32(0x44310000) & 0ffffh)
   869  002090  0000               	dw	highword (normalize32(0x44310000))
   870  002092  4431               	dw	(normalize32(0x44550000) & 0ffffh)
   871  002094  0000               	dw	highword (normalize32(0x44550000))
   872  002096  4455               	dw	(normalize32(0x44310000) & 0ffffh)
   873  002098  0000               	dw	highword (normalize32(0x44310000))
   874  00209A  4431               	dw	(normalize32(0x44550000) & 0ffffh)
   875  00209C  0000               	dw	highword (normalize32(0x44550000))
   876  00209E  4455               	dw	(normalize32(0x44310000) & 0ffffh)
   877  0020A0  0000               	dw	highword (normalize32(0x44310000))
   878  0020A2  4431               	dw	(normalize32(0x44550000) & 0ffffh)
   879  0020A4  0000               	dw	highword (normalize32(0x44550000))
   880  0020A6  4455               	dw	(normalize32(0x44310000) & 0ffffh)
   881  0020A8  0000               	dw	highword (normalize32(0x44310000))
   882  0020AA  4431               	dw	(normalize32(0x44550000) & 0ffffh)
   883  0020AC  0000               	dw	highword (normalize32(0x44550000))
   884  0020AE  4455               	dw	(normalize32(0x44310000) & 0ffffh)
   885  0020B0  0000               	dw	highword (normalize32(0x44310000))
   886  0020B2  4431               	dw	(normalize32(0x44534000) & 0ffffh)
   887  0020B4  4000               	dw	highword (normalize32(0x44534000))
   888  0020B6  4453               	dw	(normalize32(0x45143000) & 0ffffh)
   889  0020B8  3000               	dw	highword (normalize32(0x45143000))
   890  0020BA  4514               	dw	(normalize32(0x44550000) & 0ffffh)
   891  0020BC  0000               	dw	highword (normalize32(0x44550000))
   892  0020BE  4455               	dw	(normalize32(0x44310000) & 0ffffh)
   893  0020C0  0000               	dw	highword (normalize32(0x44310000))
   894  0020C2  4431               	dw	(normalize32(0x44534000) & 0ffffh)
   895  0020C4  4000               	dw	highword (normalize32(0x44534000))
   896  0020C6  4453               	dw	(normalize32(0x45143000) & 0ffffh)
   897  0020C8  3000               	dw	highword (normalize32(0x45143000))
   898  0020CA  4514               	dw	(normalize32(0x44534000) & 0ffffh)
   899  0020CC  4000               	dw	highword (normalize32(0x44534000))
   900  0020CE  4453               	dw	(normalize32(0x45143000) & 0ffffh)
   901  0020D0  3000               	dw	highword (normalize32(0x45143000))
   902  0020D2  4514               	dw	(normalize32(0x44534000) & 0ffffh)
   903  0020D4  4000               	dw	highword (normalize32(0x44534000))
   904  0020D6  4453               	dw	(normalize32(0x45143000) & 0ffffh)
   905  0020D8  3000               	dw	highword (normalize32(0x45143000))
   906  0020DA  4514               	dw	(normalize32(0x44534000) & 0ffffh)
   907  0020DC  4000               	dw	highword (normalize32(0x44534000))
   908  0020DE  4453               	dw	(normalize32(0x45143000) & 0ffffh)
   909  0020E0  3000               	dw	highword (normalize32(0x45143000))
   910  0020E2  4514               	dw	(normalize32(0x44534000) & 0ffffh)
   911  0020E4  4000               	dw	highword (normalize32(0x44534000))
   912  0020E6  4453               	dw	(normalize32(0x45143000) & 0ffffh)
   913  0020E8  3000               	dw	highword (normalize32(0x45143000))
   914  0020EA  4514               	dw	(normalize32(0x44534000) & 0ffffh)
   915  0020EC  4000               	dw	highword (normalize32(0x44534000))
   916  0020EE  4453               	dw	(normalize32(0x45143000) & 0ffffh)
   917  0020F0  3000               	dw	highword (normalize32(0x45143000))
   918  0020F2  4514               psect	idataBANK2,class=CODE,space=0,delta=1,noexec
   919                           global __pidataBANK2
   920                           __pidataBANK2:
   921  001EAE                     	line	49
   922                           
   923                           ;initializer for _volumeDownCode
   924                           	dw	(normalize32(0x44638000) & 0ffffh)
   925  001EAE  8000               	dw	highword (normalize32(0x44638000))
   926  001EB0  4463               	dw	(normalize32(0x45138000) & 0ffffh)
   927  001EB2  8000               	dw	highword (normalize32(0x45138000))
   928  001EB4  4513               	dw	(normalize32(0x44548000) & 0ffffh)
   929  001EB6  8000               	dw	highword (normalize32(0x44548000))
   930  001EB8  4454               	dw	(normalize32(0x45142000) & 0ffffh)
   931  001EBA  2000               	dw	highword (normalize32(0x45142000))
   932  001EBC  4514               	dw	(normalize32(0x44548000) & 0ffffh)
   933  001EBE  8000               	dw	highword (normalize32(0x44548000))
   934  001EC0  4454               	dw	(normalize32(0x44318000) & 0ffffh)
   935  001EC2  8000               	dw	highword (normalize32(0x44318000))
   936  001EC4  4431               	dw	(normalize32(0x44548000) & 0ffffh)
   937  001EC6  8000               	dw	highword (normalize32(0x44548000))
   938  001EC8  4454               	dw	(normalize32(0x4513d000) & 0ffffh)
   939  001ECA  D000               	dw	highword (normalize32(0x4513d000))
   940  001ECC  4513               	dw	(normalize32(0x44550000) & 0ffffh)
   941  001ECE  0000               	dw	highword (normalize32(0x44550000))
   942  001ED0  4455               	dw	(normalize32(0x44310000) & 0ffffh)
   943  001ED2  0000               	dw	highword (normalize32(0x44310000))
   944  001ED4  4431               	dw	(normalize32(0x44548000) & 0ffffh)
   945  001ED6  8000               	dw	highword (normalize32(0x44548000))
   946  001ED8  4454               	dw	(normalize32(0x44318000) & 0ffffh)
   947  001EDA  8000               	dw	highword (normalize32(0x44318000))
   948  001EDC  4431               	dw	(normalize32(0x44548000) & 0ffffh)
   949  001EDE  8000               	dw	highword (normalize32(0x44548000))
   950  001EE0  4454               	dw	(normalize32(0x44318000) & 0ffffh)
   951  001EE2  8000               	dw	highword (normalize32(0x44318000))
   952  001EE4  4431               	dw	(normalize32(0x44548000) & 0ffffh)
   953  001EE6  8000               	dw	highword (normalize32(0x44548000))
   954  001EE8  4454               	dw	(normalize32(0x44318000) & 0ffffh)
   955  001EEA  8000               	dw	highword (normalize32(0x44318000))
   956  001EEC  4431               	dw	(normalize32(0x44548000) & 0ffffh)
   957  001EEE  8000               	dw	highword (normalize32(0x44548000))
   958  001EF0  4454               	dw	(normalize32(0x44318000) & 0ffffh)
   959  001EF2  8000               	dw	highword (normalize32(0x44318000))
   960  001EF4  4431               	dw	(normalize32(0x44548000) & 0ffffh)
   961  001EF6  8000               	dw	highword (normalize32(0x44548000))
   962  001EF8  4454               	dw	(normalize32(0x44318000) & 0ffffh)
   963  001EFA  8000               	dw	highword (normalize32(0x44318000))
   964  001EFC  4431               	dw	(normalize32(0x44548000) & 0ffffh)
   965  001EFE  8000               	dw	highword (normalize32(0x44548000))
   966  001F00  4454               	dw	(normalize32(0x45142000) & 0ffffh)
   967  001F02  2000               	dw	highword (normalize32(0x45142000))
   968  001F04  4514               	dw	(normalize32(0x44548000) & 0ffffh)
   969  001F06  8000               	dw	highword (normalize32(0x44548000))
   970  001F08  4454               	dw	(normalize32(0x44318000) & 0ffffh)
   971  001F0A  8000               	dw	highword (normalize32(0x44318000))
   972  001F0C  4431               	dw	(normalize32(0x44548000) & 0ffffh)
   973  001F0E  8000               	dw	highword (normalize32(0x44548000))
   974  001F10  4454               	dw	(normalize32(0x45142000) & 0ffffh)
   975  001F12  2000               	dw	highword (normalize32(0x45142000))
   976  001F14  4514               	dw	(normalize32(0x44548000) & 0ffffh)
   977  001F16  8000               	dw	highword (normalize32(0x44548000))
   978  001F18  4454               	dw	(normalize32(0x45142000) & 0ffffh)
   979  001F1A  2000               	dw	highword (normalize32(0x45142000))
   980  001F1C  4514               	dw	(normalize32(0x44548000) & 0ffffh)
   981  001F1E  8000               	dw	highword (normalize32(0x44548000))
   982  001F20  4454               	dw	(normalize32(0x45142000) & 0ffffh)
   983  001F22  2000               	dw	highword (normalize32(0x45142000))
   984  001F24  4514               	dw	(normalize32(0x44548000) & 0ffffh)
   985  001F26  8000               	dw	highword (normalize32(0x44548000))
   986  001F28  4454               	dw	(normalize32(0x45142000) & 0ffffh)
   987  001F2A  2000               	dw	highword (normalize32(0x45142000))
   988  001F2C  4514               	line	48
   989                           
   990                           ;initializer for _volumeUpCode
   991                           	dw	(normalize32(0x44630000) & 0ffffh)
   992  001F2E  0000               	dw	highword (normalize32(0x44630000))
   993  001F30  4463               	dw	(normalize32(0x45145000) & 0ffffh)
   994  001F32  5000               	dw	highword (normalize32(0x45145000))
   995  001F34  4514               	dw	(normalize32(0x44544000) & 0ffffh)
   996  001F36  4000               	dw	highword (normalize32(0x44544000))
   997  001F38  4454               	dw	(normalize32(0x45145000) & 0ffffh)
   998  001F3A  5000               	dw	highword (normalize32(0x45145000))
   999  001F3C  4514               	dw	(normalize32(0x44544000) & 0ffffh)
  1000  001F3E  4000               	dw	highword (normalize32(0x44544000))
  1001  001F40  4454               	dw	(normalize32(0x45143000) & 0ffffh)
  1002  001F42  3000               	dw	highword (normalize32(0x45143000))
  1003  001F44  4514               	dw	(normalize32(0x44544000) & 0ffffh)
  1004  001F46  4000               	dw	highword (normalize32(0x44544000))
  1005  001F48  4454               	dw	(normalize32(0x44318000) & 0ffffh)
  1006  001F4A  8000               	dw	highword (normalize32(0x44318000))
  1007  001F4C  4431               	dw	(normalize32(0x44550000) & 0ffffh)
  1008  001F4E  0000               	dw	highword (normalize32(0x44550000))
  1009  001F50  4455               	dw	(normalize32(0x44310000) & 0ffffh)
  1010  001F52  0000               	dw	highword (normalize32(0x44310000))
  1011  001F54  4431               	dw	(normalize32(0x44550000) & 0ffffh)
  1012  001F56  0000               	dw	highword (normalize32(0x44550000))
  1013  001F58  4455               	dw	(normalize32(0x44310000) & 0ffffh)
  1014  001F5A  0000               	dw	highword (normalize32(0x44310000))
  1015  001F5C  4431               	dw	(normalize32(0x44550000) & 0ffffh)
  1016  001F5E  0000               	dw	highword (normalize32(0x44550000))
  1017  001F60  4455               	dw	(normalize32(0x44310000) & 0ffffh)
  1018  001F62  0000               	dw	highword (normalize32(0x44310000))
  1019  001F64  4431               	dw	(normalize32(0x44550000) & 0ffffh)
  1020  001F66  0000               	dw	highword (normalize32(0x44550000))
  1021  001F68  4455               	dw	(normalize32(0x44310000) & 0ffffh)
  1022  001F6A  0000               	dw	highword (normalize32(0x44310000))
  1023  001F6C  4431               	dw	(normalize32(0x44550000) & 0ffffh)
  1024  001F6E  0000               	dw	highword (normalize32(0x44550000))
  1025  001F70  4455               	dw	(normalize32(0x44310000) & 0ffffh)
  1026  001F72  0000               	dw	highword (normalize32(0x44310000))
  1027  001F74  4431               	dw	(normalize32(0x44550000) & 0ffffh)
  1028  001F76  0000               	dw	highword (normalize32(0x44550000))
  1029  001F78  4455               	dw	(normalize32(0x44310000) & 0ffffh)
  1030  001F7A  0000               	dw	highword (normalize32(0x44310000))
  1031  001F7C  4431               	dw	(normalize32(0x44550000) & 0ffffh)
  1032  001F7E  0000               	dw	highword (normalize32(0x44550000))
  1033  001F80  4455               	dw	(normalize32(0x44310000) & 0ffffh)
  1034  001F82  0000               	dw	highword (normalize32(0x44310000))
  1035  001F84  4431               	dw	(normalize32(0x44544000) & 0ffffh)
  1036  001F86  4000               	dw	highword (normalize32(0x44544000))
  1037  001F88  4454               	dw	(normalize32(0x45145000) & 0ffffh)
  1038  001F8A  5000               	dw	highword (normalize32(0x45145000))
  1039  001F8C  4514               	dw	(normalize32(0x44544000) & 0ffffh)
  1040  001F8E  4000               	dw	highword (normalize32(0x44544000))
  1041  001F90  4454               	dw	(normalize32(0x45145000) & 0ffffh)
  1042  001F92  5000               	dw	highword (normalize32(0x45145000))
  1043  001F94  4514               	dw	(normalize32(0x44544000) & 0ffffh)
  1044  001F96  4000               	dw	highword (normalize32(0x44544000))
  1045  001F98  4454               	dw	(normalize32(0x45145000) & 0ffffh)
  1046  001F9A  5000               	dw	highword (normalize32(0x45145000))
  1047  001F9C  4514               	dw	(normalize32(0x44544000) & 0ffffh)
  1048  001F9E  4000               	dw	highword (normalize32(0x44544000))
  1049  001FA0  4454               	dw	(normalize32(0x45145000) & 0ffffh)
  1050  001FA2  5000               	dw	highword (normalize32(0x45145000))
  1051  001FA4  4514               	dw	(normalize32(0x44544000) & 0ffffh)
  1052  001FA6  4000               	dw	highword (normalize32(0x44544000))
  1053  001FA8  4454               	dw	(normalize32(0x45145000) & 0ffffh)
  1054  001FAA  5000               	dw	highword (normalize32(0x45145000))
  1055  001FAC  4514               psect	idataBANK3,class=CODE,space=0,delta=1,noexec
  1056                           global __pidataBANK3
  1057                           __pidataBANK3:
  1058  0020F4                     	line	50
  1059                           
  1060                           ;initializer for _channelUpCode
  1061                           	dw	(normalize32(0x4462c000) & 0ffffh)
  1062  0020F4  C000               	dw	highword (normalize32(0x4462c000))
  1063  0020F6  4462               	dw	(normalize32(0x44318000) & 0ffffh)
  1064  0020F8  8000               	dw	highword (normalize32(0x44318000))
  1065  0020FA  4431               	dw	(normalize32(0x44534000) & 0ffffh)
  1066  0020FC  4000               	dw	highword (normalize32(0x44534000))
  1067  0020FE  4453               	dw	(normalize32(0x45143000) & 0ffffh)
  1068  002100  3000               	dw	highword (normalize32(0x45143000))
  1069  002102  4514               	dw	(normalize32(0x44548000) & 0ffffh)
  1070  002104  8000               	dw	highword (normalize32(0x44548000))
  1071  002106  4454               	dw	(normalize32(0x44318000) & 0ffffh)
  1072  002108  8000               	dw	highword (normalize32(0x44318000))
  1073  00210A  4431               	dw	(normalize32(0x44534000) & 0ffffh)
  1074  00210C  4000               	dw	highword (normalize32(0x44534000))
  1075  00210E  4453               	dw	(normalize32(0x44318000) & 0ffffh)
  1076  002110  8000               	dw	highword (normalize32(0x44318000))
  1077  002112  4431               	dw	(normalize32(0x44534000) & 0ffffh)
  1078  002114  4000               	dw	highword (normalize32(0x44534000))
  1079  002116  4453               	dw	(normalize32(0x45143000) & 0ffffh)
  1080  002118  3000               	dw	highword (normalize32(0x45143000))
  1081  00211A  4514               	dw	(normalize32(0x44548000) & 0ffffh)
  1082  00211C  8000               	dw	highword (normalize32(0x44548000))
  1083  00211E  4454               	dw	(normalize32(0x44318000) & 0ffffh)
  1084  002120  8000               	dw	highword (normalize32(0x44318000))
  1085  002122  4431               	dw	(normalize32(0x44548000) & 0ffffh)
  1086  002124  8000               	dw	highword (normalize32(0x44548000))
  1087  002126  4454               	dw	(normalize32(0x44318000) & 0ffffh)
  1088  002128  8000               	dw	highword (normalize32(0x44318000))
  1089  00212A  4431               	dw	(normalize32(0x44548000) & 0ffffh)
  1090  00212C  8000               	dw	highword (normalize32(0x44548000))
  1091  00212E  4454               	dw	(normalize32(0x44318000) & 0ffffh)
  1092  002130  8000               	dw	highword (normalize32(0x44318000))
  1093  002132  4431               	dw	(normalize32(0x44534000) & 0ffffh)
  1094  002134  4000               	dw	highword (normalize32(0x44534000))
  1095  002136  4453               	dw	(normalize32(0x45143000) & 0ffffh)
  1096  002138  3000               	dw	highword (normalize32(0x45143000))
  1097  00213A  4514               	dw	(normalize32(0x44548000) & 0ffffh)
  1098  00213C  8000               	dw	highword (normalize32(0x44548000))
  1099  00213E  4454               	dw	(normalize32(0x44318000) & 0ffffh)
  1100  002140  8000               	dw	highword (normalize32(0x44318000))
  1101  002142  4431               	dw	(normalize32(0x44534000) & 0ffffh)
  1102  002144  4000               	dw	highword (normalize32(0x44534000))
  1103  002146  4453               	dw	(normalize32(0x45143000) & 0ffffh)
  1104  002148  3000               	dw	highword (normalize32(0x45143000))
  1105  00214A  4514               	dw	(normalize32(0x44534000) & 0ffffh)
  1106  00214C  4000               	dw	highword (normalize32(0x44534000))
  1107  00214E  4453               	dw	(normalize32(0x45143000) & 0ffffh)
  1108  002150  3000               	dw	highword (normalize32(0x45143000))
  1109  002152  4514               	dw	(normalize32(0x44548000) & 0ffffh)
  1110  002154  8000               	dw	highword (normalize32(0x44548000))
  1111  002156  4454               	dw	(normalize32(0x44318000) & 0ffffh)
  1112  002158  8000               	dw	highword (normalize32(0x44318000))
  1113  00215A  4431               	dw	(normalize32(0x44534000) & 0ffffh)
  1114  00215C  4000               	dw	highword (normalize32(0x44534000))
  1115  00215E  4453               	dw	(normalize32(0x45143000) & 0ffffh)
  1116  002160  3000               	dw	highword (normalize32(0x45143000))
  1117  002162  4514               	dw	(normalize32(0x44534000) & 0ffffh)
  1118  002164  4000               	dw	highword (normalize32(0x44534000))
  1119  002166  4453               	dw	(normalize32(0x45143000) & 0ffffh)
  1120  002168  3000               	dw	highword (normalize32(0x45143000))
  1121  00216A  4514               	dw	(normalize32(0x44534000) & 0ffffh)
  1122  00216C  4000               	dw	highword (normalize32(0x44534000))
  1123  00216E  4453               	dw	(normalize32(0x45143000) & 0ffffh)
  1124  002170  3000               	dw	highword (normalize32(0x45143000))
  1125  002172  4514               psect	idataBANK4,class=CODE,space=0,delta=1,noexec
  1126                           global __pidataBANK4
  1127                           __pidataBANK4:
  1128  002174                     	line	51
  1129                           
  1130                           ;initializer for _channelDownCode
  1131                           	dw	(normalize32(0x44630000) & 0ffffh)
  1132  002174  0000               	dw	highword (normalize32(0x44630000))
  1133  002176  4463               	dw	(normalize32(0x44318000) & 0ffffh)
  1134  002178  8000               	dw	highword (normalize32(0x44318000))
  1135  00217A  4431               	dw	(normalize32(0x44550000) & 0ffffh)
  1136  00217C  0000               	dw	highword (normalize32(0x44550000))
  1137  00217E  4455               	dw	(normalize32(0x44310000) & 0ffffh)
  1138  002180  0000               	dw	highword (normalize32(0x44310000))
  1139  002182  4431               	dw	(normalize32(0x44550000) & 0ffffh)
  1140  002184  0000               	dw	highword (normalize32(0x44550000))
  1141  002186  4455               	dw	(normalize32(0x44310000) & 0ffffh)
  1142  002188  0000               	dw	highword (normalize32(0x44310000))
  1143  00218A  4431               	dw	(normalize32(0x44550000) & 0ffffh)
  1144  00218C  0000               	dw	highword (normalize32(0x44550000))
  1145  00218E  4455               	dw	(normalize32(0x44310000) & 0ffffh)
  1146  002190  0000               	dw	highword (normalize32(0x44310000))
  1147  002192  4431               	dw	(normalize32(0x44534000) & 0ffffh)
  1148  002194  4000               	dw	highword (normalize32(0x44534000))
  1149  002196  4453               	dw	(normalize32(0x45143000) & 0ffffh)
  1150  002198  3000               	dw	highword (normalize32(0x45143000))
  1151  00219A  4514               	dw	(normalize32(0x44550000) & 0ffffh)
  1152  00219C  0000               	dw	highword (normalize32(0x44550000))
  1153  00219E  4455               	dw	(normalize32(0x44310000) & 0ffffh)
  1154  0021A0  0000               	dw	highword (normalize32(0x44310000))
  1155  0021A2  4431               	dw	(normalize32(0x44550000) & 0ffffh)
  1156  0021A4  0000               	dw	highword (normalize32(0x44550000))
  1157  0021A6  4455               	dw	(normalize32(0x44310000) & 0ffffh)
  1158  0021A8  0000               	dw	highword (normalize32(0x44310000))
  1159  0021AA  4431               	dw	(normalize32(0x44550000) & 0ffffh)
  1160  0021AC  0000               	dw	highword (normalize32(0x44550000))
  1161  0021AE  4455               	dw	(normalize32(0x44310000) & 0ffffh)
  1162  0021B0  0000               	dw	highword (normalize32(0x44310000))
  1163  0021B2  4431               	dw	(normalize32(0x44534000) & 0ffffh)
  1164  0021B4  4000               	dw	highword (normalize32(0x44534000))
  1165  0021B6  4453               	dw	(normalize32(0x45143000) & 0ffffh)
  1166  0021B8  3000               	dw	highword (normalize32(0x45143000))
  1167  0021BA  4514               	dw	(normalize32(0x44534000) & 0ffffh)
  1168  0021BC  4000               	dw	highword (normalize32(0x44534000))
  1169  0021BE  4453               	dw	(normalize32(0x45143000) & 0ffffh)
  1170  0021C0  3000               	dw	highword (normalize32(0x45143000))
  1171  0021C2  4514               	dw	(normalize32(0x44534000) & 0ffffh)
  1172  0021C4  4000               	dw	highword (normalize32(0x44534000))
  1173  0021C6  4453               	dw	(normalize32(0x45143000) & 0ffffh)
  1174  0021C8  3000               	dw	highword (normalize32(0x45143000))
  1175  0021CA  4514               	dw	(normalize32(0x44534000) & 0ffffh)
  1176  0021CC  4000               	dw	highword (normalize32(0x44534000))
  1177  0021CE  4453               	dw	(normalize32(0x45143000) & 0ffffh)
  1178  0021D0  3000               	dw	highword (normalize32(0x45143000))
  1179  0021D2  4514               	dw	(normalize32(0x44550000) & 0ffffh)
  1180  0021D4  0000               	dw	highword (normalize32(0x44550000))
  1181  0021D6  4455               	dw	(normalize32(0x44310000) & 0ffffh)
  1182  0021D8  0000               	dw	highword (normalize32(0x44310000))
  1183  0021DA  4431               	dw	(normalize32(0x44534000) & 0ffffh)
  1184  0021DC  4000               	dw	highword (normalize32(0x44534000))
  1185  0021DE  4453               	dw	(normalize32(0x45143000) & 0ffffh)
  1186  0021E0  3000               	dw	highword (normalize32(0x45143000))
  1187  0021E2  4514               	dw	(normalize32(0x44534000) & 0ffffh)
  1188  0021E4  4000               	dw	highword (normalize32(0x44534000))
  1189  0021E6  4453               	dw	(normalize32(0x45143000) & 0ffffh)
  1190  0021E8  3000               	dw	highword (normalize32(0x45143000))
  1191  0021EA  4514               	dw	(normalize32(0x44534000) & 0ffffh)
  1192  0021EC  4000               	dw	highword (normalize32(0x44534000))
  1193  0021EE  4453               	dw	(normalize32(0x45143000) & 0ffffh)
  1194  0021F0  3000               	dw	highword (normalize32(0x45143000))
  1195  0021F2  4514               	global	compareSignals@F3660
  1196                           	global	_enableUP
  1197                           	global	_tmr1Overflow
  1198                           	global	_count
  1199                           	global	_timerValue
  1200                           	global	_PORTCbits
  1201                           _PORTCbits	set	0xF82
  1202  0000                     	global	_TRISCbits
  1203                           _TRISCbits	set	0xF94
  1204  0000                     	global	_LATBbits
  1205                           _LATBbits	set	0xF8A
  1206  0000                     	global	_LATAbits
  1207                           _LATAbits	set	0xF89
  1208  0000                     	global	_TRISAbits
  1209                           _TRISAbits	set	0xF92
  1210  0000                     	global	_TRISE
  1211                           _TRISE	set	0xF96
  1212  0000                     	global	_TRISD
  1213                           _TRISD	set	0xF95
  1214  0000                     	global	_TRISC
  1215                           _TRISC	set	0xF94
  1216  0000                     	global	_TRISB
  1217                           _TRISB	set	0xF93
  1218  0000                     	global	_TRISA
  1219                           _TRISA	set	0xF92
  1220  0000                     	global	_TMR1
  1221                           _TMR1	set	0xFCE
  1222  0000                     	global	_T1CONbits
  1223                           _T1CONbits	set	0xFCD
  1224  0000                     	global	_ADCON1
  1225                           _ADCON1	set	0xFC1
  1226  0000                     	global	_TMR1IF
  1227                           _TMR1IF	set	0x7CF0
  1228  0000                     	global	_TMR1ON
  1229                           _TMR1ON	set	0x7E68
  1230  0000                     	global	_TMR1IP
  1231                           _TMR1IP	set	0x7CF8
  1232  0000                     	global	_TMR1IE
  1233                           _TMR1IE	set	0x7CE8
  1234  0000                     	global	_TMR0L
  1235                           _TMR0L	set	0xFD6
  1236  0000                     	global	_T0IF
  1237                           _T0IF	set	0x7F92
  1238  0000                     	global	_TMR0IE
  1239                           _TMR0IE	set	0x7F95
  1240  0000                     	global	_PEIE
  1241                           _PEIE	set	0x7F96
  1242  0000                     	global	_GIE
  1243                           _GIE	set	0x7F97
  1244  0000                     ; #config settings
  1245                           global __CFG_PLLDIV$1
  1246                           __CFG_PLLDIV$1 equ 0x0
  1247  0000                     global __CFG_CPUDIV$OSC1_PLL2
  1248                           __CFG_CPUDIV$OSC1_PLL2 equ 0x0
  1249  0000                     global __CFG_FOSC$HSPLL_HS
  1250                           __CFG_FOSC$HSPLL_HS equ 0x0
  1251  0000                     global __CFG_FCMEN$OFF
  1252                           __CFG_FCMEN$OFF equ 0x0
  1253  0000                     global __CFG_BORV$3
  1254                           __CFG_BORV$3 equ 0x0
  1255  0000                     global __CFG_WDT$OFF
  1256                           __CFG_WDT$OFF equ 0x0
  1257  0000                     global __CFG_MCLRE$ON
  1258                           __CFG_MCLRE$ON equ 0x0
  1259  0000                     global __CFG_LVP$OFF
  1260                           __CFG_LVP$OFF equ 0x0
  1261  0000                     global __CFG_CPB$OFF
  1262                           __CFG_CPB$OFF equ 0x0
  1263  0000                     global __CFG_CPD$OFF
  1264                           __CFG_CPD$OFF equ 0x0
  1265  0000                     	file	"C:\Users\elite\AppData\Local\Temp\s110."
  1266                           	line	#
  1267                           psect	cinit,class=CODE,delta=1,reloc=2
  1268                           global __pcinit
  1269                           __pcinit:
  1270  001FAE                     global start_initialization
  1271                           start_initialization:
  1272  001FAE                     
  1273                           global __initialization
  1274                           __initialization:
  1275  001FAE                     psect	bssCOMRAM,class=COMRAM,space=1,noexec
  1276                           global __pbssCOMRAM
  1277                           __pbssCOMRAM:
  1278  000049                     compareSignals@F3660:
  1279  000049                            ds      10
  1280  000049                     	global	_enableUP
  1281                           _enableUP:
  1282  000053                            ds      2
  1283  000053                     	global	_tmr1Overflow
  1284                           _tmr1Overflow:
  1285  000055                            ds      2
  1286  000055                     	global	_count
  1287                           _count:
  1288  000057                            ds      2
  1289  000057                     psect	dataCOMRAM,class=COMRAM,space=1,noexec
  1290                           global __pdataCOMRAM
  1291                           __pdataCOMRAM:
  1292  000059                     	file	"main.c"
  1293                           	line	45
  1294                           	global	_enableDOWN
  1295                           _enableDOWN:
  1296  000059                            ds      2
  1297  000059                     psect	dataCOMRAM
  1298                           	file	"main.c"
  1299                           	line	44
  1300                           	global	_index
  1301                           _index:
  1302  00005B                            ds      2
  1303  00005B                     psect	bssBANK1,class=BANK1,space=1,noexec,lowdata
  1304                           global __pbssBANK1
  1305                           __pbssBANK1:
  1306  000100                     	global	_timerValue
  1307                           _timerValue:
  1308  000100                            ds      128
  1309  000100                     psect	dataBANK1,class=BANK1,space=1,noexec,lowdata
  1310                           global __pdataBANK1
  1311                           __pdataBANK1:
  1312  000180                     	file	"main.c"
  1313                           	line	47
  1314                           	global	_turnOnCode
  1315                           _turnOnCode:
  1316  000180                            ds      128
  1317  000180                     psect	dataBANK2,class=BANK2,space=1,noexec,lowdata
  1318                           global __pdataBANK2
  1319                           __pdataBANK2:
  1320  000200                     	file	"main.c"
  1321                           	line	49
  1322                           	global	_volumeDownCode
  1323                           _volumeDownCode:
  1324  000200                            ds      128
  1325  000200                     psect	dataBANK2
  1326                           	file	"main.c"
  1327                           	line	48
  1328                           	global	_volumeUpCode
  1329                           _volumeUpCode:
  1330  000280                            ds      128
  1331  000280                     psect	dataBANK3,class=BANK3,space=1,noexec,lowdata
  1332                           global __pdataBANK3
  1333                           __pdataBANK3:
  1334  000300                     	file	"main.c"
  1335                           	line	50
  1336                           	global	_channelUpCode
  1337                           _channelUpCode:
  1338  000300                            ds      128
  1339  000300                     psect	dataBANK4,class=BANK4,space=1,noexec,lowdata
  1340                           global __pdataBANK4
  1341                           __pdataBANK4:
  1342  000400                     	file	"main.c"
  1343                           	line	51
  1344                           	global	_channelDownCode
  1345                           _channelDownCode:
  1346  000400                            ds      128
  1347  000400                     	file	"C:\Users\elite\AppData\Local\Temp\s110."
  1348                           	line	#
  1349                           psect	cinit
  1350                           ; Initialize objects allocated to BANK4 (128 bytes)
  1351                           	global __pidataBANK4
  1352                           	; load TBLPTR registers with __pidataBANK4
  1353                           	movlw	low (__pidataBANK4)
  1354  001FAE  0E74               	movwf	tblptrl
  1355  001FB0  6EF6               	movlw	high(__pidataBANK4)
  1356  001FB2  0E21               	movwf	tblptrh
  1357  001FB4  6EF7               	movlw	low highword(__pidataBANK4)
  1358  001FB6  0E00               	movwf	tblptru
  1359  001FB8  6EF8               	lfsr	0,__pdataBANK4
  1360  001FBA  EE04  F000         	lfsr	1,128
  1361  001FBE  EE10 F080          	copy_data0:
  1362  001FC2                     	tblrd	*+
  1363  001FC2  0009               	movff	tablat, postinc0
  1364  001FC4  CFF5 FFEE          	movf	postdec1,w
  1365  001FC8  50E5               	movf	fsr1l,w
  1366  001FCA  50E1               	bnz	copy_data0
  1367  001FCC  E1FA               ; Initialize objects allocated to BANK2 (256 bytes)
  1368                           	global __pidataBANK2
  1369                           	; load TBLPTR registers with __pidataBANK2
  1370                           	movlw	low (__pidataBANK2)
  1371  001FCE  0EAE               	movwf	tblptrl
  1372  001FD0  6EF6               	movlw	high(__pidataBANK2)
  1373  001FD2  0E1E               	movwf	tblptrh
  1374  001FD4  6EF7               	movlw	low highword(__pidataBANK2)
  1375  001FD6  0E00               	movwf	tblptru
  1376  001FD8  6EF8               	lfsr	0,__pdataBANK2
  1377  001FDA  EE02  F000         	lfsr	1,256
  1378  001FDE  EE11 F000          	copy_data1:
  1379  001FE2                     	tblrd	*+
  1380  001FE2  0009               	movff	tablat, postinc0
  1381  001FE4  CFF5 FFEE          	movf	postdec1,w
  1382  001FE8  50E5               	movf	fsr1l,w
  1383  001FEA  50E1               	bnz	copy_data1
  1384  001FEC  E1FA               	movf	fsr1h,w
  1385  001FEE  50E2               	bnz	copy_data1
  1386  001FF0  E1F8               ; Initialize objects allocated to BANK1 (128 bytes)
  1387                           	global __pidataBANK1
  1388                           	; load TBLPTR registers with __pidataBANK1
  1389                           	movlw	low (__pidataBANK1)
  1390  001FF2  0E74               	movwf	tblptrl
  1391  001FF4  6EF6               	movlw	high(__pidataBANK1)
  1392  001FF6  0E20               	movwf	tblptrh
  1393  001FF8  6EF7               	movlw	low highword(__pidataBANK1)
  1394  001FFA  0E00               	movwf	tblptru
  1395  001FFC  6EF8               	lfsr	0,__pdataBANK1
  1396  001FFE  EE01  F080         	lfsr	1,128
  1397  002002  EE10 F080          	copy_data2:
  1398  002006                     	tblrd	*+
  1399  002006  0009               	movff	tablat, postinc0
  1400  002008  CFF5 FFEE          	movf	postdec1,w
  1401  00200C  50E5               	movf	fsr1l,w
  1402  00200E  50E1               	bnz	copy_data2
  1403  002010  E1FA               ; Initialize objects allocated to BANK3 (128 bytes)
  1404                           	global __pidataBANK3
  1405                           	; load TBLPTR registers with __pidataBANK3
  1406                           	movlw	low (__pidataBANK3)
  1407  002012  0EF4               	movwf	tblptrl
  1408  002014  6EF6               	movlw	high(__pidataBANK3)
  1409  002016  0E20               	movwf	tblptrh
  1410  002018  6EF7               	movlw	low highword(__pidataBANK3)
  1411  00201A  0E00               	movwf	tblptru
  1412  00201C  6EF8               	lfsr	0,__pdataBANK3
  1413  00201E  EE03  F000         	lfsr	1,128
  1414  002022  EE10 F080          	copy_data3:
  1415  002026                     	tblrd	*+
  1416  002026  0009               	movff	tablat, postinc0
  1417  002028  CFF5 FFEE          	movf	postdec1,w
  1418  00202C  50E5               	movf	fsr1l,w
  1419  00202E  50E1               	bnz	copy_data3
  1420  002030  E1FA               ; Initialize objects allocated to COMRAM (4 bytes)
  1421                           	global __pidataCOMRAM
  1422                           	; load TBLPTR registers with __pidataCOMRAM
  1423                           	movlw	low (__pidataCOMRAM)
  1424  002032  0E9C               	movwf	tblptrl
  1425  002034  6EF6               	movlw	high(__pidataCOMRAM)
  1426  002036  0E23               	movwf	tblptrh
  1427  002038  6EF7               	movlw	low highword(__pidataCOMRAM)
  1428  00203A  0E00               	movwf	tblptru
  1429  00203C  6EF8               	lfsr	0,__pdataCOMRAM
  1430  00203E  EE00  F059         	lfsr	1,4
  1431  002042  EE10 F004          	copy_data4:
  1432  002046                     	tblrd	*+
  1433  002046  0009               	movff	tablat, postinc0
  1434  002048  CFF5 FFEE          	movf	postdec1,w
  1435  00204C  50E5               	movf	fsr1l,w
  1436  00204E  50E1               	bnz	copy_data4
  1437  002050  E1FA               	line	#
  1438                           ; Clear objects allocated to BANK1 (128 bytes)
  1439                           	global __pbssBANK1
  1440                           lfsr	0,__pbssBANK1
  1441  002052  EE01  F000         movlw	128
  1442  002056  0E80               clear_0:
  1443  002058                     clrf	postinc0,c
  1444  002058  6AEE               decf	wreg
  1445  00205A  06E8               bnz	clear_0
  1446  00205C  E1FD               ; Clear objects allocated to COMRAM (16 bytes)
  1447                           	global __pbssCOMRAM
  1448                           lfsr	0,__pbssCOMRAM
  1449  00205E  EE00  F049         movlw	16
  1450  002062  0E10               clear_1:
  1451  002064                     clrf	postinc0,c
  1452  002064  6AEE               decf	wreg
  1453  002066  06E8               bnz	clear_1
  1454  002068  E1FD               psect cinit,class=CODE,delta=1
  1455                           global end_of_initialization,__end_of__initialization
  1456                           
  1457                           ;End of C runtime variable initialization code
  1458                           
  1459                           end_of_initialization:
  1460  00206A                     __end_of__initialization:
  1461  00206A                     	bcf int$flags,0,c ;clear compiler interrupt flag (level 1)
  1462  00206A  905D               	bcf int$flags,1,c ;clear compiler interrupt flag (level 2)
  1463  00206C  925D               movlb 0
  1464  00206E  0100               goto _main	;jump to C main() function
  1465  002070  EF09  F000         psect	cstackBANK0,class=BANK0,space=1,noexec
  1466                           global __pcstackBANK0
  1467                           __pcstackBANK0:
  1468  000060                     	global	compareTurnOn@sum
  1469                           compareTurnOn@sum:	; 60 bytes @ 0x0
  1470  000060                     	global	compareVolumeUp@sum
  1471                           compareVolumeUp@sum:	; 64 bytes @ 0x0
  1472  000060                     	global	compareVolumeDown@sum
  1473                           compareVolumeDown@sum:	; 64 bytes @ 0x0
  1474  000060                     	global	compareChannelUp@sum
  1475                           compareChannelUp@sum:	; 64 bytes @ 0x0
  1476  000060                     	global	compareChannelDown@sum
  1477                           compareChannelDown@sum:	; 64 bytes @ 0x0
  1478  000060                     	ds   60
  1479  000060                     	global	compareTurnOn@acum
  1480                           compareTurnOn@acum:	; 2 bytes @ 0x3C
  1481  00009C                     	ds   2
  1482  00009C                     	global	compareTurnOn@i
  1483                           compareTurnOn@i:	; 2 bytes @ 0x3E
  1484  00009E                     	ds   2
  1485  00009E                     	global	compareVolumeUp@acum
  1486                           compareVolumeUp@acum:	; 2 bytes @ 0x40
  1487  0000A0                     	global	compareVolumeDown@acum
  1488                           compareVolumeDown@acum:	; 2 bytes @ 0x40
  1489  0000A0                     	global	compareChannelUp@acum
  1490                           compareChannelUp@acum:	; 2 bytes @ 0x40
  1491  0000A0                     	global	compareChannelDown@acum
  1492                           compareChannelDown@acum:	; 2 bytes @ 0x40
  1493  0000A0                     	ds   2
  1494  0000A0                     	global	compareVolumeUp@i
  1495                           compareVolumeUp@i:	; 2 bytes @ 0x42
  1496  0000A2                     	global	compareVolumeDown@i
  1497                           compareVolumeDown@i:	; 2 bytes @ 0x42
  1498  0000A2                     	global	compareChannelUp@i
  1499                           compareChannelUp@i:	; 2 bytes @ 0x42
  1500  0000A2                     	global	compareChannelDown@i
  1501                           compareChannelDown@i:	; 2 bytes @ 0x42
  1502  0000A2                     	ds   2
  1503  0000A2                     psect	cstackCOMRAM,class=COMRAM,space=1,noexec
  1504                           global __pcstackCOMRAM
  1505                           __pcstackCOMRAM:
  1506  000001                     ?___flge:	; 1 bit 
  1507  000001                     ?_configPIC:	; 1 bytes @ 0x0
  1508  000001                     ??_configPIC:	; 1 bytes @ 0x0
  1509  000001                     ?_TMR1Config:	; 1 bytes @ 0x0
  1510  000001                     ??_TMR1Config:	; 1 bytes @ 0x0
  1511  000001                     ?_initgetUS:	; 1 bytes @ 0x0
  1512  000001                     ??_initgetUS:	; 1 bytes @ 0x0
  1513  000001                     ?_sumTmr1Overflow:	; 1 bytes @ 0x0
  1514  000001                     ??_sumTmr1Overflow:	; 1 bytes @ 0x0
  1515  000001                     ?_isrPlayer1:	; 1 bytes @ 0x0
  1516  000001                     ??_isrPlayer1:	; 1 bytes @ 0x0
  1517  000001                     ?_Forward:	; 1 bytes @ 0x0
  1518  000001                     ??_Forward:	; 1 bytes @ 0x0
  1519  000001                     ?_Left:	; 1 bytes @ 0x0
  1520  000001                     ??_Left:	; 1 bytes @ 0x0
  1521  000001                     ?_Right:	; 1 bytes @ 0x0
  1522  000001                     ??_Right:	; 1 bytes @ 0x0
  1523  000001                     ?_Stop:	; 1 bytes @ 0x0
  1524  000001                     ??_Stop:	; 1 bytes @ 0x0
  1525  000001                     ?_Reverse:	; 1 bytes @ 0x0
  1526  000001                     ??_Reverse:	; 1 bytes @ 0x0
  1527  000001                     ?_main:	; 1 bytes @ 0x0
  1528  000001                     	global	?___lmul
  1529                           ?___lmul:	; 4 bytes @ 0x0
  1530  000001                     	global	?___flneg
  1531                           ?___flneg:	; 4 bytes @ 0x0
  1532  000001                     	global	___lmul@multiplier
  1533                           ___lmul@multiplier:	; 4 bytes @ 0x0
  1534  000001                     	global	___flge@ff1
  1535                           ___flge@ff1:	; 4 bytes @ 0x0
  1536  000001                     	global	___flneg@f1
  1537                           ___flneg@f1:	; 4 bytes @ 0x0
  1538  000001                     	ds   4
  1539  000001                     ??___flneg:	; 1 bytes @ 0x4
  1540  000005                     	global	?___fladd
  1541                           ?___fladd:	; 4 bytes @ 0x4
  1542  000005                     	global	___lmul@multiplicand
  1543                           ___lmul@multiplicand:	; 4 bytes @ 0x4
  1544  000005                     	global	___flge@ff2
  1545                           ___flge@ff2:	; 4 bytes @ 0x4
  1546  000005                     	global	___fladd@b
  1547                           ___fladd@b:	; 4 bytes @ 0x4
  1548  000005                     	ds   4
  1549  000005                     ??___lmul:	; 1 bytes @ 0x8
  1550  000009                     ??___flge:	; 1 bytes @ 0x8
  1551  000009                     	global	___lmul@product
  1552                           ___lmul@product:	; 4 bytes @ 0x8
  1553  000009                     	global	___fladd@a
  1554                           ___fladd@a:	; 4 bytes @ 0x8
  1555  000009                     	ds   4
  1556  000009                     ??___fladd:	; 1 bytes @ 0xC
  1557  00000D                     	global	?___xxtofl
  1558                           ?___xxtofl:	; 4 bytes @ 0xC
  1559  00000D                     	global	___xxtofl@val
  1560                           ___xxtofl@val:	; 4 bytes @ 0xC
  1561  00000D                     	ds   4
  1562  00000D                     ??___xxtofl:	; 1 bytes @ 0x10
  1563  000011                     	ds   4
  1564  000011                     	global	___fladd@signs
  1565                           ___fladd@signs:	; 1 bytes @ 0x14
  1566  000015                     	global	___xxtofl@sign
  1567                           ___xxtofl@sign:	; 1 bytes @ 0x14
  1568  000015                     	ds   1
  1569  000015                     	global	___fladd@aexp
  1570                           ___fladd@aexp:	; 1 bytes @ 0x15
  1571  000016                     	global	___xxtofl@exp
  1572                           ___xxtofl@exp:	; 1 bytes @ 0x15
  1573  000016                     	ds   1
  1574  000016                     	global	___fladd@bexp
  1575                           ___fladd@bexp:	; 1 bytes @ 0x16
  1576  000017                     	global	___xxtofl@arg
  1577                           ___xxtofl@arg:	; 4 bytes @ 0x16
  1578  000017                     	ds   1
  1579  000017                     	global	___fladd@grs
  1580                           ___fladd@grs:	; 1 bytes @ 0x17
  1581  000018                     	ds   1
  1582  000018                     	global	?___fltol
  1583                           ?___fltol:	; 4 bytes @ 0x18
  1584  000019                     	global	___fltol@f1
  1585                           ___fltol@f1:	; 4 bytes @ 0x18
  1586  000019                     	ds   2
  1587  000019                     	global	?_getTimeUS
  1588                           ?_getTimeUS:	; 4 bytes @ 0x1A
  1589  00001B                     	ds   2
  1590  00001B                     ??___fltol:	; 1 bytes @ 0x1C
  1591  00001D                     	ds   2
  1592  00001D                     ??_getTimeUS:	; 1 bytes @ 0x1E
  1593  00001F                     	ds   2
  1594  00001F                     	global	___fltol@sign1
  1595                           ___fltol@sign1:	; 1 bytes @ 0x20
  1596  000021                     	ds   1
  1597  000021                     	global	___fltol@exp1
  1598                           ___fltol@exp1:	; 1 bytes @ 0x21
  1599  000022                     	ds   1
  1600  000022                     	global	?_compareTurnOn
  1601                           ?_compareTurnOn:	; 2 bytes @ 0x22
  1602  000023                     	global	?_compareVolumeUp
  1603                           ?_compareVolumeUp:	; 2 bytes @ 0x22
  1604  000023                     	global	?_compareVolumeDown
  1605                           ?_compareVolumeDown:	; 2 bytes @ 0x22
  1606  000023                     	global	?_compareChannelUp
  1607                           ?_compareChannelUp:	; 2 bytes @ 0x22
  1608  000023                     	global	?_compareChannelDown
  1609                           ?_compareChannelDown:	; 2 bytes @ 0x22
  1610  000023                     	ds   2
  1611  000023                     ??_compareTurnOn:	; 1 bytes @ 0x24
  1612  000025                     ??_compareVolumeUp:	; 1 bytes @ 0x24
  1613  000025                     ??_compareVolumeDown:	; 1 bytes @ 0x24
  1614  000025                     ??_compareChannelUp:	; 1 bytes @ 0x24
  1615  000025                     ??_compareChannelDown:	; 1 bytes @ 0x24
  1616  000025                     	ds   4
  1617  000025                     	global	?_compareSignals
  1618                           ?_compareSignals:	; 2 bytes @ 0x28
  1619  000029                     	ds   2
  1620  000029                     ??_compareSignals:	; 1 bytes @ 0x2A
  1621  00002B                     	ds   2
  1622  00002B                     	global	compareSignals@to
  1623                           compareSignals@to:	; 2 bytes @ 0x2C
  1624  00002D                     	ds   2
  1625  00002D                     	global	compareSignals@vu
  1626                           compareSignals@vu:	; 2 bytes @ 0x2E
  1627  00002F                     	ds   2
  1628  00002F                     	global	compareSignals@vd
  1629                           compareSignals@vd:	; 2 bytes @ 0x30
  1630  000031                     	ds   2
  1631  000031                     	global	compareSignals@cu
  1632                           compareSignals@cu:	; 2 bytes @ 0x32
  1633  000033                     	ds   2
  1634  000033                     	global	compareSignals@cd
  1635                           compareSignals@cd:	; 2 bytes @ 0x34
  1636  000035                     	ds   2
  1637  000035                     	global	compareSignals@values
  1638                           compareSignals@values:	; 10 bytes @ 0x36
  1639  000037                     	ds   10
  1640  000037                     	global	compareSignals@signal
  1641                           compareSignals@signal:	; 2 bytes @ 0x40
  1642  000041                     	ds   2
  1643  000041                     	global	compareSignals@numMenor
  1644                           compareSignals@numMenor:	; 2 bytes @ 0x42
  1645  000043                     	ds   2
  1646  000043                     	global	compareSignals@ii
  1647                           compareSignals@ii:	; 2 bytes @ 0x44
  1648  000045                     	ds   2
  1649  000045                     ??_main:	; 1 bytes @ 0x46
  1650  000047                     	global	main@comando
  1651                           main@comando:	; 2 bytes @ 0x46
  1652  000047                     	ds   2
  1653  000047                     ;!
  1654                           ;!Data Sizes:
  1655                           ;!    Strings     0
  1656                           ;!    Constant    0
  1657                           ;!    Data        644
  1658                           ;!    BSS         144
  1659                           ;!    Persistent  0
  1660                           ;!    Stack       0
  1661                           ;!
  1662                           ;!Auto Spaces:
  1663                           ;!    Space          Size  Autos    Used
  1664                           ;!    COMRAM           94     72      92
  1665                           ;!    BANK0           160     68      68
  1666                           ;!    BANK1           256      0     256
  1667                           ;!    BANK2           256      0     256
  1668                           ;!    BANK3           244      0     128
  1669                           ;!    BANK4           256      0     128
  1670                           ;!    BANK5           256      0       0
  1671                           ;!    BANK6           256      0       0
  1672                           ;!    BANK7           256      0       0
  1673                           
  1674                           ;!
  1675                           ;!Pointer List with Targets:
  1676                           ;!
  1677                           ;!    None.
  1678                           
  1679                           
  1680                           ;!
  1681                           ;!Critical Paths under _main in COMRAM
  1682                           ;!
  1683                           ;!    _main->_compareSignals
  1684                           ;!    _getTimeUS->___xxtofl
  1685                           ;!    ___xxtofl->___lmul
  1686                           ;!    _compareSignals->_compareChannelDown
  1687                           ;!    _compareSignals->_compareChannelUp
  1688                           ;!    _compareSignals->_compareTurnOn
  1689                           ;!    _compareSignals->_compareVolumeDown
  1690                           ;!    _compareSignals->_compareVolumeUp
  1691                           ;!    _compareVolumeUp->___fltol
  1692                           ;!    _compareVolumeDown->___fltol
  1693                           ;!    _compareTurnOn->___fltol
  1694                           ;!    _compareChannelUp->___fltol
  1695                           ;!    _compareChannelDown->___fltol
  1696                           ;!    ___fltol->___fladd
  1697                           ;!    ___fladd->___flneg
  1698                           ;!
  1699                           ;!Critical Paths under _isrPlayer1 in COMRAM
  1700                           ;!
  1701                           ;!    None.
  1702                           ;!
  1703                           ;!Critical Paths under _main in BANK0
  1704                           ;!
  1705                           ;!    _compareSignals->_compareChannelDown
  1706                           ;!    _compareSignals->_compareChannelUp
  1707                           ;!    _compareSignals->_compareVolumeDown
  1708                           ;!    _compareSignals->_compareVolumeUp
  1709                           ;!
  1710                           ;!Critical Paths under _isrPlayer1 in BANK0
  1711                           ;!
  1712                           ;!    None.
  1713                           ;!
  1714                           ;!Critical Paths under _main in BANK1
  1715                           ;!
  1716                           ;!    None.
  1717                           ;!
  1718                           ;!Critical Paths under _isrPlayer1 in BANK1
  1719                           ;!
  1720                           ;!    None.
  1721                           ;!
  1722                           ;!Critical Paths under _main in BANK2
  1723                           ;!
  1724                           ;!    None.
  1725                           ;!
  1726                           ;!Critical Paths under _isrPlayer1 in BANK2
  1727                           ;!
  1728                           ;!    None.
  1729                           ;!
  1730                           ;!Critical Paths under _main in BANK3
  1731                           ;!
  1732                           ;!    None.
  1733                           ;!
  1734                           ;!Critical Paths under _isrPlayer1 in BANK3
  1735                           ;!
  1736                           ;!    None.
  1737                           ;!
  1738                           ;!Critical Paths under _main in BANK4
  1739                           ;!
  1740                           ;!    None.
  1741                           ;!
  1742                           ;!Critical Paths under _isrPlayer1 in BANK4
  1743                           ;!
  1744                           ;!    None.
  1745                           ;!
  1746                           ;!Critical Paths under _main in BANK5
  1747                           ;!
  1748                           ;!    None.
  1749                           ;!
  1750                           ;!Critical Paths under _isrPlayer1 in BANK5
  1751                           ;!
  1752                           ;!    None.
  1753                           ;!
  1754                           ;!Critical Paths under _main in BANK6
  1755                           ;!
  1756                           ;!    None.
  1757                           ;!
  1758                           ;!Critical Paths under _isrPlayer1 in BANK6
  1759                           ;!
  1760                           ;!    None.
  1761                           ;!
  1762                           ;!Critical Paths under _main in BANK7
  1763                           ;!
  1764                           ;!    None.
  1765                           ;!
  1766                           ;!Critical Paths under _isrPlayer1 in BANK7
  1767                           ;!
  1768                           ;!    None.
  1769                           
  1770 ;;
  1771 ;;Main: autosize = 0, tempsize = 0, incstack = 0, save=0
  1772 ;;
  1773                           
  1774                           ;!
  1775                           ;!Call Graph Tables:
  1776                           ;!
  1777                           ;! ---------------------------------------------------------------------------------
  1778                           ;! (Depth) Function   	        Calls       Base Space   Used Autos Params    Refs
  1779                           ;! ---------------------------------------------------------------------------------
  1780                           ;! (0) _main                                                 2     2      0   36498
  1781                           ;!                                             70 COMRAM     2     2      0
  1782                           ;!                            _Forward
  1783                           ;!                               _Left
  1784                           ;!                            _Reverse
  1785                           ;!                              _Right
  1786                           ;!                               _Stop
  1787                           ;!                         _TMR1Config
  1788                           ;!                     _compareSignals
  1789                           ;!                          _configPIC
  1790                           ;!                          _getTimeUS
  1791                           ;!                          _initgetUS
  1792                           ;! ---------------------------------------------------------------------------------
  1793                           ;! (1) _initgetUS                                            0     0      0       0
  1794                           ;! ---------------------------------------------------------------------------------
  1795                           ;! (1) _getTimeUS                                            4     0      4     920
  1796                           ;!                                             26 COMRAM     4     0      4
  1797                           ;!                             ___lmul
  1798                           ;!                           ___xxtofl
  1799                           ;! ---------------------------------------------------------------------------------
  1800                           ;! (2) ___xxtofl                                            14    10      4     550
  1801                           ;!                                             12 COMRAM    14    10      4
  1802                           ;!                             ___lmul (ARG)
  1803                           ;! ---------------------------------------------------------------------------------
  1804                           ;! (2) ___lmul                                              12     4      8     370
  1805                           ;!                                              0 COMRAM    12     4      8
  1806                           ;! ---------------------------------------------------------------------------------
  1807                           ;! (1) _configPIC                                            0     0      0       0
  1808                           ;! ---------------------------------------------------------------------------------
  1809                           ;! (1) _compareSignals                                      30    28      2   35467
  1810                           ;!                                             40 COMRAM    30    28      2
  1811                           ;!                 _compareChannelDown
  1812                           ;!                   _compareChannelUp
  1813                           ;!                      _compareTurnOn
  1814                           ;!                  _compareVolumeDown
  1815                           ;!                    _compareVolumeUp
  1816                           ;! ---------------------------------------------------------------------------------
  1817                           ;! (2) _compareVolumeUp                                     74    72      2    7005
  1818                           ;!                                             34 COMRAM     6     4      2
  1819                           ;!                                              0 BANK0     68    68      0
  1820                           ;!                            ___fladd
  1821                           ;!                             ___flge
  1822                           ;!                            ___flneg
  1823                           ;!                            ___fltol
  1824                           ;! ---------------------------------------------------------------------------------
  1825                           ;! (2) _compareVolumeDown                                   74    72      2    7005
  1826                           ;!                                             34 COMRAM     6     4      2
  1827                           ;!                                              0 BANK0     68    68      0
  1828                           ;!                            ___fladd
  1829                           ;!                             ___flge
  1830                           ;!                            ___flneg
  1831                           ;!                            ___fltol
  1832                           ;! ---------------------------------------------------------------------------------
  1833                           ;! (2) _compareTurnOn                                       70    68      2    7005
  1834                           ;!                                             34 COMRAM     6     4      2
  1835                           ;!                                              0 BANK0     64    64      0
  1836                           ;!                            ___fladd
  1837                           ;!                             ___flge
  1838                           ;!                            ___flneg
  1839                           ;!                            ___fltol
  1840                           ;! ---------------------------------------------------------------------------------
  1841                           ;! (2) _compareChannelUp                                    74    72      2    7005
  1842                           ;!                                             34 COMRAM     6     4      2
  1843                           ;!                                              0 BANK0     68    68      0
  1844                           ;!                            ___fladd
  1845                           ;!                             ___flge
  1846                           ;!                            ___flneg
  1847                           ;!                            ___fltol
  1848                           ;! ---------------------------------------------------------------------------------
  1849                           ;! (2) _compareChannelDown                                  74    72      2    7005
  1850                           ;!                                             34 COMRAM     6     4      2
  1851                           ;!                                              0 BANK0     68    68      0
  1852                           ;!                            ___fladd
  1853                           ;!                             ___flge
  1854                           ;!                            ___flneg
  1855                           ;!                            ___fltol
  1856                           ;! ---------------------------------------------------------------------------------
  1857                           ;! (3) ___fltol                                             10     6      4     989
  1858                           ;!                                             24 COMRAM    10     6      4
  1859                           ;!                            ___fladd (ARG)
  1860                           ;!                            ___flneg (ARG)
  1861                           ;! ---------------------------------------------------------------------------------
  1862                           ;! (3) ___flneg                                              4     0      4     805
  1863                           ;!                                              0 COMRAM     4     0      4
  1864                           ;! ---------------------------------------------------------------------------------
  1865                           ;! (3) ___flge                                              12     4      8    1094
  1866                           ;!                                              0 COMRAM    12     4      8
  1867                           ;! ---------------------------------------------------------------------------------
  1868                           ;! (3) ___fladd                                             20    12      8    3756
  1869                           ;!                                              4 COMRAM    20    12      8
  1870                           ;!                            ___flneg (ARG)
  1871                           ;! ---------------------------------------------------------------------------------
  1872                           ;! (1) _TMR1Config                                           0     0      0       0
  1873                           ;! ---------------------------------------------------------------------------------
  1874                           ;! (1) _Stop                                                 0     0      0       0
  1875                           ;! ---------------------------------------------------------------------------------
  1876                           ;! (1) _Right                                                0     0      0       0
  1877                           ;! ---------------------------------------------------------------------------------
  1878                           ;! (1) _Reverse                                              0     0      0       0
  1879                           ;! ---------------------------------------------------------------------------------
  1880                           ;! (1) _Left                                                 0     0      0       0
  1881                           ;! ---------------------------------------------------------------------------------
  1882                           ;! (1) _Forward                                              0     0      0       0
  1883                           ;! ---------------------------------------------------------------------------------
  1884                           ;! Estimated maximum stack depth 3
  1885                           ;! ---------------------------------------------------------------------------------
  1886                           ;! (Depth) Function   	        Calls       Base Space   Used Autos Params    Refs
  1887                           ;! ---------------------------------------------------------------------------------
  1888                           ;! (4) _isrPlayer1                                           0     0      0       0
  1889                           ;!                    _sumTmr1Overflow
  1890                           ;! ---------------------------------------------------------------------------------
  1891                           ;! (5) _sumTmr1Overflow                                      0     0      0       0
  1892                           ;! ---------------------------------------------------------------------------------
  1893                           ;! Estimated maximum stack depth 5
  1894                           ;! ---------------------------------------------------------------------------------
  1895                           ;!
  1896                           ;! Call Graph Graphs:
  1897                           ;!
  1898                           ;! _main (ROOT)
  1899                           ;!   _Forward
  1900                           ;!   _Left
  1901                           ;!   _Reverse
  1902                           ;!   _Right
  1903                           ;!   _Stop
  1904                           ;!   _TMR1Config
  1905                           ;!   _compareSignals
  1906                           ;!     _compareChannelDown
  1907                           ;!       ___fladd
  1908                           ;!         ___flneg (ARG)
  1909                           ;!       ___flge
  1910                           ;!       ___flneg
  1911                           ;!       ___fltol
  1912                           ;!         ___fladd (ARG)
  1913                           ;!           ___flneg (ARG)
  1914                           ;!         ___flneg (ARG)
  1915                           ;!     _compareChannelUp
  1916                           ;!       ___fladd
  1917                           ;!         ___flneg (ARG)
  1918                           ;!       ___flge
  1919                           ;!       ___flneg
  1920                           ;!       ___fltol
  1921                           ;!         ___fladd (ARG)
  1922                           ;!           ___flneg (ARG)
  1923                           ;!         ___flneg (ARG)
  1924                           ;!     _compareTurnOn
  1925                           ;!       ___fladd
  1926                           ;!         ___flneg (ARG)
  1927                           ;!       ___flge
  1928                           ;!       ___flneg
  1929                           ;!       ___fltol
  1930                           ;!         ___fladd (ARG)
  1931                           ;!           ___flneg (ARG)
  1932                           ;!         ___flneg (ARG)
  1933                           ;!     _compareVolumeDown
  1934                           ;!       ___fladd
  1935                           ;!         ___flneg (ARG)
  1936                           ;!       ___flge
  1937                           ;!       ___flneg
  1938                           ;!       ___fltol
  1939                           ;!         ___fladd (ARG)
  1940                           ;!           ___flneg (ARG)
  1941                           ;!         ___flneg (ARG)
  1942                           ;!     _compareVolumeUp
  1943                           ;!       ___fladd
  1944                           ;!         ___flneg (ARG)
  1945                           ;!       ___flge
  1946                           ;!       ___flneg
  1947                           ;!       ___fltol
  1948                           ;!         ___fladd (ARG)
  1949                           ;!           ___flneg (ARG)
  1950                           ;!         ___flneg (ARG)
  1951                           ;!   _configPIC
  1952                           ;!   _getTimeUS
  1953                           ;!     ___lmul
  1954                           ;!     ___xxtofl
  1955                           ;!       ___lmul (ARG)
  1956                           ;!   _initgetUS
  1957                           ;!
  1958                           ;! _isrPlayer1 (ROOT)
  1959                           ;!   _sumTmr1Overflow
  1960                           ;!
  1961                           
  1962                           ;! Address spaces:
  1963                           
  1964                           ;!Name               Size   Autos  Total    Cost      Usage
  1965                           ;!BIGRAM_1           400      0       0      21        0.0%
  1966                           ;!BIGRAM             3F3      0       0      22        0.0%
  1967                           ;!EEDATA             100      0       0       0        0.0%
  1968                           ;!BITBANK7           100      0       0      19        0.0%
  1969                           ;!BANK7              100      0       0      20        0.0%
  1970                           ;!BITBANK6           100      0       0      17        0.0%
  1971                           ;!BANK6              100      0       0      18        0.0%
  1972                           ;!BITBANK5           100      0       0      15        0.0%
  1973                           ;!BANK5              100      0       0      16        0.0%
  1974                           ;!BITBANK4           100      0       0      13        0.0%
  1975                           ;!BANK4              100      0      80      14       50.0%
  1976                           ;!BITBANK2           100      0       0       8        0.0%
  1977                           ;!BANK2              100      0     100       9      100.0%
  1978                           ;!BITBANK1           100      0       0       6        0.0%
  1979                           ;!BANK1              100      0     100       7      100.0%
  1980                           ;!BITBANK3            F4      0       0      12        0.0%
  1981                           ;!BANK3               F4      0      80      10       52.5%
  1982                           ;!BITBANK0            A0      0       0       4        0.0%
  1983                           ;!BANK0               A0     44      44       5       42.5%
  1984                           ;!BITCOMRAM           5E      0       0       0        0.0%
  1985                           ;!COMRAM              5E     48      5C       1       97.9%
  1986                           ;!BITSFR_5             0      0       0     200        0.0%
  1987                           ;!SFR_5                0      0       0     200        0.0%
  1988                           ;!BITSFR_4             0      0       0     200        0.0%
  1989                           ;!SFR_4                0      0       0     200        0.0%
  1990                           ;!BITSFR_3             0      0       0     200        0.0%
  1991                           ;!SFR_3                0      0       0     200        0.0%
  1992                           ;!BITSFR_2             0      0       0     200        0.0%
  1993                           ;!SFR_2                0      0       0     200        0.0%
  1994                           ;!BITSFR_1             0      0       0     200        0.0%
  1995                           ;!SFR_1                0      0       0     200        0.0%
  1996                           ;!BITSFR               0      0       0     200        0.0%
  1997                           ;!SFR                  0      0       0     200        0.0%
  1998                           ;!STACK                0      0       0       2        0.0%
  1999                           ;!NULL                 0      0       0       0        0.0%
  2000                           ;!ABS                  0      0     3A0      11        0.0%
  2001                           ;!DATA                 0      0     3A0       3        0.0%
  2002                           ;!CODE                 0      0       0       0        0.0%
  2003                           
  2004                           	global	_main
  2005                           
  2006 ;; *************** function _main *****************
  2007 ;; Defined at:
  2008 ;;		line 260 in file "main.c"
  2009 ;; Parameters:    Size  Location     Type
  2010 ;;		None
  2011 ;; Auto vars:     Size  Location     Type
  2012 ;;  comando         2   70[COMRAM] int 
  2013 ;; Return value:  Size  Location     Type
  2014 ;;                  1    wreg      void 
  2015 ;; Registers used:
  2016 ;;		wreg, fsr1l, fsr1h, fsr2l, fsr2h, status,2, status,0, cstack
  2017 ;; Tracked objects:
  2018 ;;		On entry : 0/0
  2019 ;;		On exit  : 0/0
  2020 ;;		Unchanged: 0/0
  2021 ;; Data sizes:     COMRAM   BANK0   BANK1   BANK2   BANK3   BANK4   BANK5   BANK6   BANK7
  2022 ;;      Params:         0       0       0       0       0       0       0       0       0
  2023 ;;      Locals:         2       0       0       0       0       0       0       0       0
  2024 ;;      Temps:          0       0       0       0       0       0       0       0       0
  2025 ;;      Totals:         2       0       0       0       0       0       0       0       0
  2026 ;;Total ram usage:        2 bytes
  2027 ;; Hardware stack levels required when called:    5
  2028 ;; This function calls:
  2029 ;;		_Forward
  2030 ;;		_Left
  2031 ;;		_Reverse
  2032 ;;		_Right
  2033 ;;		_Stop
  2034 ;;		_TMR1Config
  2035 ;;		_compareSignals
  2036 ;;		_configPIC
  2037 ;;		_getTimeUS
  2038 ;;		_initgetUS
  2039 ;; This function is called by:
  2040 ;;		Startup code after reset
  2041 ;; This function uses a non-reentrant model
  2042 ;;
  2043                           psect	text0,class=CODE,space=0,reloc=2,group=0
  2044                           	file	"main.c"
  2045                           	line	260
  2046                           global __ptext0
  2047                           __ptext0:
  2048  000012                     psect	text0
  2049                           	file	"main.c"
  2050                           	line	260
  2051                           	global	__size_of_main
  2052                           	__size_of_main	equ	__end_of_main-_main
  2053  0000                     	
  2054                           _main:
  2055  000012                     ;incstack = 0
  2056                           	opt	stack 26
  2057                           	line	261
  2058                           	
  2059                           l2172:
  2060  000012                     ;main.c: 261:     TMR1Config();
  2061                           	call	_TMR1Config	;wreg free
  2062  000012  ECAA  F011         	line	262
  2063                           	
  2064                           l2174:
  2065  000016                     ;main.c: 262:     configPIC();
  2066                           	call	_configPIC	;wreg free
  2067  000016  EC80  F011         	line	263
  2068                           	
  2069                           l2176:
  2070  00001A                     ;main.c: 263:     TRISCbits.RC2=1;
  2071                           	bsf	((c:3988)),c,2	;volatile
  2072  00001A  8494               	goto	l2178
  2073  00001C  EF10  F000         	line	266
  2074                           ;main.c: 266:     while (1){
  2075                           	
  2076                           l172:
  2077  000020                     	line	269
  2078                           	
  2079                           l2178:
  2080  000020                     ;main.c: 269:         if (PORTCbits.RC2==0 && enableDOWN==1){
  2081                           	btfsc	((c:3970)),c,2	;volatile
  2082  000020  B482               	goto	u2181
  2083  000022  EF15  F000         	goto	u2180
  2084  000026  EF17  F000         u2181:
  2085  00002A                     	goto	l2292
  2086  00002A  EFC2  F001         u2180:
  2087  00002E                     	
  2088                           l2180:
  2089  00002E                     		decf	((c:_enableDOWN)),c,w
  2090  00002E  0459               iorwf	((c:_enableDOWN+1)),c,w
  2091  000030  105A               	btfss	status,2
  2092  000032  A4D8               	goto	u2191
  2093  000034  EF1E  F000         	goto	u2190
  2094  000038  EF20  F000         
  2095                           u2191:
  2096  00003C                     	goto	l2292
  2097  00003C  EFC2  F001         u2190:
  2098  000040                     	line	270
  2099                           	
  2100                           l2182:
  2101  000040                     ;main.c: 270:             index++;
  2102                           	infsnz	((c:_index)),c
  2103  000040  4A5B               	incf	((c:_index+1)),c
  2104  000042  2A5C               	line	271
  2105                           	
  2106                           l2184:
  2107  000044                     ;main.c: 271:             enableDOWN=0;
  2108                           	movlw	high(0)
  2109  000044  0E00               	movwf	((c:_enableDOWN+1)),c
  2110  000046  6E5A               	movlw	low(0)
  2111  000048  0E00               	movwf	((c:_enableDOWN)),c
  2112  00004A  6E59               	line	272
  2113                           	
  2114                           l2186:
  2115  00004C                     ;main.c: 272:             enableUP=1;
  2116                           	movlw	high(01h)
  2117  00004C  0E00               	movwf	((c:_enableUP+1)),c
  2118  00004E  6E54               	movlw	low(01h)
  2119  000050  0E01               	movwf	((c:_enableUP)),c
  2120  000052  6E53               	line	273
  2121                           	
  2122                           l2188:
  2123  000054                     ;main.c: 273:             if(index==36){
  2124                           		movlw	36
  2125  000054  0E24               	xorwf	((c:_index)),c,w
  2126  000056  185B               iorwf	((c:_index+1)),c,w
  2127  000058  105C               	btfss	status,2
  2128  00005A  A4D8               	goto	u2201
  2129  00005C  EF32  F000         	goto	u2200
  2130  000060  EF34  F000         
  2131                           u2201:
  2132  000064                     	goto	l2192
  2133  000064  EF38  F000         u2200:
  2134  000068                     	line	274
  2135                           	
  2136                           l2190:
  2137  000068                     ;main.c: 274:                 initgetUS();
  2138                           	call	_initgetUS	;wreg free
  2139  000068  ECA1  F011         	goto	l2192
  2140  00006C  EF38  F000         	line	276
  2141                           ;main.c: 276:             }
  2142                           	
  2143                           l174:
  2144  000070                     	line	278
  2145                           	
  2146                           l2192:
  2147  000070                     ;main.c: 278:             if(index==38){
  2148                           		movlw	38
  2149  000070  0E26               	xorwf	((c:_index)),c,w
  2150  000072  185B               iorwf	((c:_index+1)),c,w
  2151  000074  105C               	btfss	status,2
  2152  000076  A4D8               	goto	u2211
  2153  000078  EF40  F000         	goto	u2210
  2154  00007C  EF42  F000         
  2155                           u2211:
  2156  000080                     	goto	l2198
  2157  000080  EF50  F000         u2210:
  2158  000084                     	line	279
  2159                           	
  2160                           l2194:
  2161  000084                     ;main.c: 279:                 timerValue[1]=getTimeUS();
  2162                           	call	_getTimeUS	;wreg free
  2163  000084  EC33  F011         	movff	0+?_getTimeUS,0+(_timerValue+04h)
  2164  000088  C01B  F104         	movff	1+?_getTimeUS,1+(_timerValue+04h)
  2165  00008C  C01C  F105         	movff	2+?_getTimeUS,2+(_timerValue+04h)
  2166  000090  C01D  F106         	movff	3+?_getTimeUS,3+(_timerValue+04h)
  2167  000094  C01E  F107         	
  2168                           	line	280
  2169                           	
  2170                           l2196:
  2171  000098                     ;main.c: 280:                 initgetUS();
  2172                           	call	_initgetUS	;wreg free
  2173  000098  ECA1  F011         	goto	l2198
  2174  00009C  EF50  F000         	line	282
  2175                           ;main.c: 282:             }
  2176                           	
  2177                           l175:
  2178  0000A0                     	line	284
  2179                           	
  2180                           l2198:
  2181  0000A0                     ;main.c: 284:             if(index==40){
  2182                           		movlw	40
  2183  0000A0  0E28               	xorwf	((c:_index)),c,w
  2184  0000A2  185B               iorwf	((c:_index+1)),c,w
  2185  0000A4  105C               	btfss	status,2
  2186  0000A6  A4D8               	goto	u2221
  2187  0000A8  EF58  F000         	goto	u2220
  2188  0000AC  EF5A  F000         
  2189                           u2221:
  2190  0000B0                     	goto	l2204
  2191  0000B0  EF68  F000         u2220:
  2192  0000B4                     	line	285
  2193                           	
  2194                           l2200:
  2195  0000B4                     ;main.c: 285:                 timerValue[3]=getTimeUS();
  2196                           	call	_getTimeUS	;wreg free
  2197  0000B4  EC33  F011         	movff	0+?_getTimeUS,0+(_timerValue+0Ch)
  2198  0000B8  C01B  F10C         	movff	1+?_getTimeUS,1+(_timerValue+0Ch)
  2199  0000BC  C01C  F10D         	movff	2+?_getTimeUS,2+(_timerValue+0Ch)
  2200  0000C0  C01D  F10E         	movff	3+?_getTimeUS,3+(_timerValue+0Ch)
  2201  0000C4  C01E  F10F         	
  2202                           	line	286
  2203                           	
  2204                           l2202:
  2205  0000C8                     ;main.c: 286:                 initgetUS();
  2206                           	call	_initgetUS	;wreg free
  2207  0000C8  ECA1  F011         	goto	l2204
  2208  0000CC  EF68  F000         	line	288
  2209                           ;main.c: 288:             }
  2210                           	
  2211                           l176:
  2212  0000D0                     	line	290
  2213                           	
  2214                           l2204:
  2215  0000D0                     ;main.c: 290:             if(index==42){
  2216                           		movlw	42
  2217  0000D0  0E2A               	xorwf	((c:_index)),c,w
  2218  0000D2  185B               iorwf	((c:_index+1)),c,w
  2219  0000D4  105C               	btfss	status,2
  2220  0000D6  A4D8               	goto	u2231
  2221  0000D8  EF70  F000         	goto	u2230
  2222  0000DC  EF72  F000         
  2223                           u2231:
  2224  0000E0                     	goto	l2210
  2225  0000E0  EF80  F000         u2230:
  2226  0000E4                     	line	291
  2227                           	
  2228                           l2206:
  2229  0000E4                     ;main.c: 291:                 timerValue[5]=getTimeUS();
  2230                           	call	_getTimeUS	;wreg free
  2231  0000E4  EC33  F011         	movff	0+?_getTimeUS,0+(_timerValue+014h)
  2232  0000E8  C01B  F114         	movff	1+?_getTimeUS,1+(_timerValue+014h)
  2233  0000EC  C01C  F115         	movff	2+?_getTimeUS,2+(_timerValue+014h)
  2234  0000F0  C01D  F116         	movff	3+?_getTimeUS,3+(_timerValue+014h)
  2235  0000F4  C01E  F117         	
  2236                           	line	292
  2237                           	
  2238                           l2208:
  2239  0000F8                     ;main.c: 292:                 initgetUS();
  2240                           	call	_initgetUS	;wreg free
  2241  0000F8  ECA1  F011         	goto	l2210
  2242  0000FC  EF80  F000         	line	294
  2243                           ;main.c: 294:             }
  2244                           	
  2245                           l177:
  2246  000100                     	line	296
  2247                           	
  2248                           l2210:
  2249  000100                     ;main.c: 296:              if(index==44){
  2250                           		movlw	44
  2251  000100  0E2C               	xorwf	((c:_index)),c,w
  2252  000102  185B               iorwf	((c:_index+1)),c,w
  2253  000104  105C               	btfss	status,2
  2254  000106  A4D8               	goto	u2241
  2255  000108  EF88  F000         	goto	u2240
  2256  00010C  EF8A  F000         
  2257                           u2241:
  2258  000110                     	goto	l2216
  2259  000110  EF98  F000         u2240:
  2260  000114                     	line	297
  2261                           	
  2262                           l2212:
  2263  000114                     ;main.c: 297:                 timerValue[7]=getTimeUS();
  2264                           	call	_getTimeUS	;wreg free
  2265  000114  EC33  F011         	movff	0+?_getTimeUS,0+(_timerValue+01Ch)
  2266  000118  C01B  F11C         	movff	1+?_getTimeUS,1+(_timerValue+01Ch)
  2267  00011C  C01C  F11D         	movff	2+?_getTimeUS,2+(_timerValue+01Ch)
  2268  000120  C01D  F11E         	movff	3+?_getTimeUS,3+(_timerValue+01Ch)
  2269  000124  C01E  F11F         	
  2270                           	line	298
  2271                           	
  2272                           l2214:
  2273  000128                     ;main.c: 298:                 initgetUS();
  2274                           	call	_initgetUS	;wreg free
  2275  000128  ECA1  F011         	goto	l2216
  2276  00012C  EF98  F000         	line	299
  2277                           ;main.c: 299:             }
  2278                           	
  2279                           l178:
  2280  000130                     	line	301
  2281                           	
  2282                           l2216:
  2283  000130                     ;main.c: 301:             if(index==46){
  2284                           		movlw	46
  2285  000130  0E2E               	xorwf	((c:_index)),c,w
  2286  000132  185B               iorwf	((c:_index+1)),c,w
  2287  000134  105C               	btfss	status,2
  2288  000136  A4D8               	goto	u2251
  2289  000138  EFA0  F000         	goto	u2250
  2290  00013C  EFA2  F000         
  2291                           u2251:
  2292  000140                     	goto	l2222
  2293  000140  EFB0  F000         u2250:
  2294  000144                     	line	302
  2295                           	
  2296                           l2218:
  2297  000144                     ;main.c: 302:                 timerValue[9]=getTimeUS();
  2298                           	call	_getTimeUS	;wreg free
  2299  000144  EC33  F011         	movff	0+?_getTimeUS,0+(_timerValue+024h)
  2300  000148  C01B  F124         	movff	1+?_getTimeUS,1+(_timerValue+024h)
  2301  00014C  C01C  F125         	movff	2+?_getTimeUS,2+(_timerValue+024h)
  2302  000150  C01D  F126         	movff	3+?_getTimeUS,3+(_timerValue+024h)
  2303  000154  C01E  F127         	
  2304                           	line	303
  2305                           	
  2306                           l2220:
  2307  000158                     ;main.c: 303:                 initgetUS();
  2308                           	call	_initgetUS	;wreg free
  2309  000158  ECA1  F011         	goto	l2222
  2310  00015C  EFB0  F000         	line	304
  2311                           ;main.c: 304:             }
  2312                           	
  2313                           l179:
  2314  000160                     	line	306
  2315                           	
  2316                           l2222:
  2317  000160                     ;main.c: 306:             if(index==48){
  2318                           		movlw	48
  2319  000160  0E30               	xorwf	((c:_index)),c,w
  2320  000162  185B               iorwf	((c:_index+1)),c,w
  2321  000164  105C               	btfss	status,2
  2322  000166  A4D8               	goto	u2261
  2323  000168  EFB8  F000         	goto	u2260
  2324  00016C  EFBA  F000         
  2325                           u2261:
  2326  000170                     	goto	l2228
  2327  000170  EFC8  F000         u2260:
  2328  000174                     	line	307
  2329                           	
  2330                           l2224:
  2331  000174                     ;main.c: 307:                 timerValue[11]=getTimeUS();
  2332                           	call	_getTimeUS	;wreg free
  2333  000174  EC33  F011         	movff	0+?_getTimeUS,0+(_timerValue+02Ch)
  2334  000178  C01B  F12C         	movff	1+?_getTimeUS,1+(_timerValue+02Ch)
  2335  00017C  C01C  F12D         	movff	2+?_getTimeUS,2+(_timerValue+02Ch)
  2336  000180  C01D  F12E         	movff	3+?_getTimeUS,3+(_timerValue+02Ch)
  2337  000184  C01E  F12F         	
  2338                           	line	308
  2339                           	
  2340                           l2226:
  2341  000188                     ;main.c: 308:                 initgetUS();
  2342                           	call	_initgetUS	;wreg free
  2343  000188  ECA1  F011         	goto	l2228
  2344  00018C  EFC8  F000         	line	309
  2345                           ;main.c: 309:             }
  2346                           	
  2347                           l180:
  2348  000190                     	line	311
  2349                           	
  2350                           l2228:
  2351  000190                     ;main.c: 311:             if(index==50){
  2352                           		movlw	50
  2353  000190  0E32               	xorwf	((c:_index)),c,w
  2354  000192  185B               iorwf	((c:_index+1)),c,w
  2355  000194  105C               	btfss	status,2
  2356  000196  A4D8               	goto	u2271
  2357  000198  EFD0  F000         	goto	u2270
  2358  00019C  EFD2  F000         
  2359                           u2271:
  2360  0001A0                     	goto	l2234
  2361  0001A0  EFE0  F000         u2270:
  2362  0001A4                     	line	312
  2363                           	
  2364                           l2230:
  2365  0001A4                     ;main.c: 312:                 timerValue[13]=getTimeUS();
  2366                           	call	_getTimeUS	;wreg free
  2367  0001A4  EC33  F011         	movff	0+?_getTimeUS,0+(_timerValue+034h)
  2368  0001A8  C01B  F134         	movff	1+?_getTimeUS,1+(_timerValue+034h)
  2369  0001AC  C01C  F135         	movff	2+?_getTimeUS,2+(_timerValue+034h)
  2370  0001B0  C01D  F136         	movff	3+?_getTimeUS,3+(_timerValue+034h)
  2371  0001B4  C01E  F137         	
  2372                           	line	313
  2373                           	
  2374                           l2232:
  2375  0001B8                     ;main.c: 313:                 initgetUS();
  2376                           	call	_initgetUS	;wreg free
  2377  0001B8  ECA1  F011         	goto	l2234
  2378  0001BC  EFE0  F000         	line	314
  2379                           ;main.c: 314:             }
  2380                           	
  2381                           l181:
  2382  0001C0                     	line	316
  2383                           	
  2384                           l2234:
  2385  0001C0                     ;main.c: 316:             if(index==52){
  2386                           		movlw	52
  2387  0001C0  0E34               	xorwf	((c:_index)),c,w
  2388  0001C2  185B               iorwf	((c:_index+1)),c,w
  2389  0001C4  105C               	btfss	status,2
  2390  0001C6  A4D8               	goto	u2281
  2391  0001C8  EFE8  F000         	goto	u2280
  2392  0001CC  EFEA  F000         
  2393                           u2281:
  2394  0001D0                     	goto	l2240
  2395  0001D0  EFF8  F000         u2280:
  2396  0001D4                     	line	317
  2397                           	
  2398                           l2236:
  2399  0001D4                     ;main.c: 317:                 timerValue[15]=getTimeUS();
  2400                           	call	_getTimeUS	;wreg free
  2401  0001D4  EC33  F011         	movff	0+?_getTimeUS,0+(_timerValue+03Ch)
  2402  0001D8  C01B  F13C         	movff	1+?_getTimeUS,1+(_timerValue+03Ch)
  2403  0001DC  C01C  F13D         	movff	2+?_getTimeUS,2+(_timerValue+03Ch)
  2404  0001E0  C01D  F13E         	movff	3+?_getTimeUS,3+(_timerValue+03Ch)
  2405  0001E4  C01E  F13F         	
  2406                           	line	318
  2407                           	
  2408                           l2238:
  2409  0001E8                     ;main.c: 318:                 initgetUS();
  2410                           	call	_initgetUS	;wreg free
  2411  0001E8  ECA1  F011         	goto	l2240
  2412  0001EC  EFF8  F000         	line	319
  2413                           ;main.c: 319:             }
  2414                           	
  2415                           l182:
  2416  0001F0                     	line	321
  2417                           	
  2418                           l2240:
  2419  0001F0                     ;main.c: 321:             if(index==54){
  2420                           		movlw	54
  2421  0001F0  0E36               	xorwf	((c:_index)),c,w
  2422  0001F2  185B               iorwf	((c:_index+1)),c,w
  2423  0001F4  105C               	btfss	status,2
  2424  0001F6  A4D8               	goto	u2291
  2425  0001F8  EF00  F001         	goto	u2290
  2426  0001FC  EF02  F001         
  2427                           u2291:
  2428  000200                     	goto	l2246
  2429  000200  EF10  F001         u2290:
  2430  000204                     	line	322
  2431                           	
  2432                           l2242:
  2433  000204                     ;main.c: 322:                 timerValue[17]=getTimeUS();
  2434                           	call	_getTimeUS	;wreg free
  2435  000204  EC33  F011         	movff	0+?_getTimeUS,0+(_timerValue+044h)
  2436  000208  C01B  F144         	movff	1+?_getTimeUS,1+(_timerValue+044h)
  2437  00020C  C01C  F145         	movff	2+?_getTimeUS,2+(_timerValue+044h)
  2438  000210  C01D  F146         	movff	3+?_getTimeUS,3+(_timerValue+044h)
  2439  000214  C01E  F147         	
  2440                           	line	323
  2441                           	
  2442                           l2244:
  2443  000218                     ;main.c: 323:                 initgetUS();
  2444                           	call	_initgetUS	;wreg free
  2445  000218  ECA1  F011         	goto	l2246
  2446  00021C  EF10  F001         	line	324
  2447                           ;main.c: 324:             }
  2448                           	
  2449                           l183:
  2450  000220                     	line	326
  2451                           	
  2452                           l2246:
  2453  000220                     ;main.c: 326:             if(index==56){
  2454                           		movlw	56
  2455  000220  0E38               	xorwf	((c:_index)),c,w
  2456  000222  185B               iorwf	((c:_index+1)),c,w
  2457  000224  105C               	btfss	status,2
  2458  000226  A4D8               	goto	u2301
  2459  000228  EF18  F001         	goto	u2300
  2460  00022C  EF1A  F001         
  2461                           u2301:
  2462  000230                     	goto	l2252
  2463  000230  EF28  F001         u2300:
  2464  000234                     	line	327
  2465                           	
  2466                           l2248:
  2467  000234                     ;main.c: 327:                 timerValue[19]=getTimeUS();
  2468                           	call	_getTimeUS	;wreg free
  2469  000234  EC33  F011         	movff	0+?_getTimeUS,0+(_timerValue+04Ch)
  2470  000238  C01B  F14C         	movff	1+?_getTimeUS,1+(_timerValue+04Ch)
  2471  00023C  C01C  F14D         	movff	2+?_getTimeUS,2+(_timerValue+04Ch)
  2472  000240  C01D  F14E         	movff	3+?_getTimeUS,3+(_timerValue+04Ch)
  2473  000244  C01E  F14F         	
  2474                           	line	328
  2475                           	
  2476                           l2250:
  2477  000248                     ;main.c: 328:                 initgetUS();
  2478                           	call	_initgetUS	;wreg free
  2479  000248  ECA1  F011         	goto	l2252
  2480  00024C  EF28  F001         	line	329
  2481                           ;main.c: 329:             }
  2482                           	
  2483                           l184:
  2484  000250                     	line	331
  2485                           	
  2486                           l2252:
  2487  000250                     ;main.c: 331:             if(index==58){
  2488                           		movlw	58
  2489  000250  0E3A               	xorwf	((c:_index)),c,w
  2490  000252  185B               iorwf	((c:_index+1)),c,w
  2491  000254  105C               	btfss	status,2
  2492  000256  A4D8               	goto	u2311
  2493  000258  EF30  F001         	goto	u2310
  2494  00025C  EF32  F001         
  2495                           u2311:
  2496  000260                     	goto	l2258
  2497  000260  EF40  F001         u2310:
  2498  000264                     	line	332
  2499                           	
  2500                           l2254:
  2501  000264                     ;main.c: 332:                 timerValue[21]=getTimeUS();
  2502                           	call	_getTimeUS	;wreg free
  2503  000264  EC33  F011         	movff	0+?_getTimeUS,0+(_timerValue+054h)
  2504  000268  C01B  F154         	movff	1+?_getTimeUS,1+(_timerValue+054h)
  2505  00026C  C01C  F155         	movff	2+?_getTimeUS,2+(_timerValue+054h)
  2506  000270  C01D  F156         	movff	3+?_getTimeUS,3+(_timerValue+054h)
  2507  000274  C01E  F157         	
  2508                           	line	333
  2509                           	
  2510                           l2256:
  2511  000278                     ;main.c: 333:                 initgetUS();
  2512                           	call	_initgetUS	;wreg free
  2513  000278  ECA1  F011         	goto	l2258
  2514  00027C  EF40  F001         	line	334
  2515                           ;main.c: 334:             }
  2516                           	
  2517                           l185:
  2518  000280                     	line	336
  2519                           	
  2520                           l2258:
  2521  000280                     ;main.c: 336:             if(index==60){
  2522                           		movlw	60
  2523  000280  0E3C               	xorwf	((c:_index)),c,w
  2524  000282  185B               iorwf	((c:_index+1)),c,w
  2525  000284  105C               	btfss	status,2
  2526  000286  A4D8               	goto	u2321
  2527  000288  EF48  F001         	goto	u2320
  2528  00028C  EF4A  F001         
  2529                           u2321:
  2530  000290                     	goto	l2264
  2531  000290  EF58  F001         u2320:
  2532  000294                     	line	337
  2533                           	
  2534                           l2260:
  2535  000294                     ;main.c: 337:                 timerValue[23]=getTimeUS();
  2536                           	call	_getTimeUS	;wreg free
  2537  000294  EC33  F011         	movff	0+?_getTimeUS,0+(_timerValue+05Ch)
  2538  000298  C01B  F15C         	movff	1+?_getTimeUS,1+(_timerValue+05Ch)
  2539  00029C  C01C  F15D         	movff	2+?_getTimeUS,2+(_timerValue+05Ch)
  2540  0002A0  C01D  F15E         	movff	3+?_getTimeUS,3+(_timerValue+05Ch)
  2541  0002A4  C01E  F15F         	
  2542                           	line	338
  2543                           	
  2544                           l2262:
  2545  0002A8                     ;main.c: 338:                 initgetUS();
  2546                           	call	_initgetUS	;wreg free
  2547  0002A8  ECA1  F011         	goto	l2264
  2548  0002AC  EF58  F001         	line	339
  2549                           ;main.c: 339:             }
  2550                           	
  2551                           l186:
  2552  0002B0                     	line	341
  2553                           	
  2554                           l2264:
  2555  0002B0                     ;main.c: 341:             if(index==62){
  2556                           		movlw	62
  2557  0002B0  0E3E               	xorwf	((c:_index)),c,w
  2558  0002B2  185B               iorwf	((c:_index+1)),c,w
  2559  0002B4  105C               	btfss	status,2
  2560  0002B6  A4D8               	goto	u2331
  2561  0002B8  EF60  F001         	goto	u2330
  2562  0002BC  EF62  F001         
  2563                           u2331:
  2564  0002C0                     	goto	l2270
  2565  0002C0  EF70  F001         u2330:
  2566  0002C4                     	line	342
  2567                           	
  2568                           l2266:
  2569  0002C4                     ;main.c: 342:                 timerValue[25]=getTimeUS();
  2570                           	call	_getTimeUS	;wreg free
  2571  0002C4  EC33  F011         	movff	0+?_getTimeUS,0+(_timerValue+064h)
  2572  0002C8  C01B  F164         	movff	1+?_getTimeUS,1+(_timerValue+064h)
  2573  0002CC  C01C  F165         	movff	2+?_getTimeUS,2+(_timerValue+064h)
  2574  0002D0  C01D  F166         	movff	3+?_getTimeUS,3+(_timerValue+064h)
  2575  0002D4  C01E  F167         	
  2576                           	line	343
  2577                           	
  2578                           l2268:
  2579  0002D8                     ;main.c: 343:                 initgetUS();
  2580                           	call	_initgetUS	;wreg free
  2581  0002D8  ECA1  F011         	goto	l2270
  2582  0002DC  EF70  F001         	line	344
  2583                           ;main.c: 344:             }
  2584                           	
  2585                           l187:
  2586  0002E0                     	line	346
  2587                           	
  2588                           l2270:
  2589  0002E0                     ;main.c: 346:             if(index==64){
  2590                           		movlw	64
  2591  0002E0  0E40               	xorwf	((c:_index)),c,w
  2592  0002E2  185B               iorwf	((c:_index+1)),c,w
  2593  0002E4  105C               	btfss	status,2
  2594  0002E6  A4D8               	goto	u2341
  2595  0002E8  EF78  F001         	goto	u2340
  2596  0002EC  EF7A  F001         
  2597                           u2341:
  2598  0002F0                     	goto	l2276
  2599  0002F0  EF88  F001         u2340:
  2600  0002F4                     	line	347
  2601                           	
  2602                           l2272:
  2603  0002F4                     ;main.c: 347:                 timerValue[27]=getTimeUS();
  2604                           	call	_getTimeUS	;wreg free
  2605  0002F4  EC33  F011         	movff	0+?_getTimeUS,0+(_timerValue+06Ch)
  2606  0002F8  C01B  F16C         	movff	1+?_getTimeUS,1+(_timerValue+06Ch)
  2607  0002FC  C01C  F16D         	movff	2+?_getTimeUS,2+(_timerValue+06Ch)
  2608  000300  C01D  F16E         	movff	3+?_getTimeUS,3+(_timerValue+06Ch)
  2609  000304  C01E  F16F         	
  2610                           	line	348
  2611                           	
  2612                           l2274:
  2613  000308                     ;main.c: 348:                 initgetUS();
  2614                           	call	_initgetUS	;wreg free
  2615  000308  ECA1  F011         	goto	l2276
  2616  00030C  EF88  F001         	line	349
  2617                           ;main.c: 349:             }
  2618                           	
  2619                           l188:
  2620  000310                     	line	351
  2621                           	
  2622                           l2276:
  2623  000310                     ;main.c: 351:              if(index==66){
  2624                           		movlw	66
  2625  000310  0E42               	xorwf	((c:_index)),c,w
  2626  000312  185B               iorwf	((c:_index+1)),c,w
  2627  000314  105C               	btfss	status,2
  2628  000316  A4D8               	goto	u2351
  2629  000318  EF90  F001         	goto	u2350
  2630  00031C  EF92  F001         
  2631                           u2351:
  2632  000320                     	goto	l2282
  2633  000320  EFA0  F001         u2350:
  2634  000324                     	line	352
  2635                           	
  2636                           l2278:
  2637  000324                     ;main.c: 352:                 timerValue[29]=getTimeUS();
  2638                           	call	_getTimeUS	;wreg free
  2639  000324  EC33  F011         	movff	0+?_getTimeUS,0+(_timerValue+074h)
  2640  000328  C01B  F174         	movff	1+?_getTimeUS,1+(_timerValue+074h)
  2641  00032C  C01C  F175         	movff	2+?_getTimeUS,2+(_timerValue+074h)
  2642  000330  C01D  F176         	movff	3+?_getTimeUS,3+(_timerValue+074h)
  2643  000334  C01E  F177         	
  2644                           	line	353
  2645                           	
  2646                           l2280:
  2647  000338                     ;main.c: 353:                 initgetUS();
  2648                           	call	_initgetUS	;wreg free
  2649  000338  ECA1  F011         	goto	l2282
  2650  00033C  EFA0  F001         	line	354
  2651                           ;main.c: 354:             }
  2652                           	
  2653                           l189:
  2654  000340                     	line	356
  2655                           	
  2656                           l2282:
  2657  000340                     ;main.c: 356:             if(index==68){
  2658                           		movlw	68
  2659  000340  0E44               	xorwf	((c:_index)),c,w
  2660  000342  185B               iorwf	((c:_index+1)),c,w
  2661  000344  105C               	btfss	status,2
  2662  000346  A4D8               	goto	u2361
  2663  000348  EFA8  F001         	goto	u2360
  2664  00034C  EFAA  F001         
  2665                           u2361:
  2666  000350                     	goto	l2292
  2667  000350  EFC2  F001         u2360:
  2668  000354                     	line	357
  2669                           	
  2670                           l2284:
  2671  000354                     ;main.c: 357:                 timerValue[31]=getTimeUS();
  2672                           	call	_getTimeUS	;wreg free
  2673  000354  EC33  F011         	movff	0+?_getTimeUS,0+(_timerValue+07Ch)
  2674  000358  C01B  F17C         	movff	1+?_getTimeUS,1+(_timerValue+07Ch)
  2675  00035C  C01C  F17D         	movff	2+?_getTimeUS,2+(_timerValue+07Ch)
  2676  000360  C01D  F17E         	movff	3+?_getTimeUS,3+(_timerValue+07Ch)
  2677  000364  C01E  F17F         	
  2678                           	line	358
  2679                           	
  2680                           l2286:
  2681  000368                     ;main.c: 358:                 initgetUS();
  2682                           	call	_initgetUS	;wreg free
  2683  000368  ECA1  F011         	line	359
  2684                           	
  2685                           l2288:
  2686  00036C                     ;main.c: 359:                 enableDOWN=0;
  2687                           	movlw	high(0)
  2688  00036C  0E00               	movwf	((c:_enableDOWN+1)),c
  2689  00036E  6E5A               	movlw	low(0)
  2690  000370  0E00               	movwf	((c:_enableDOWN)),c
  2691  000372  6E59               	line	360
  2692                           	
  2693                           l2290:
  2694  000374                     ;main.c: 360:                 enableUP=0;
  2695                           	movlw	high(0)
  2696  000374  0E00               	movwf	((c:_enableUP+1)),c
  2697  000376  6E54               	movlw	low(0)
  2698  000378  0E00               	movwf	((c:_enableUP)),c
  2699  00037A  6E53               	goto	l2292
  2700  00037C  EFC2  F001         	line	361
  2701                           ;main.c: 361:             }
  2702                           	
  2703                           l190:
  2704  000380                     	goto	l2292
  2705  000380  EFC2  F001         	line	363
  2706                           ;main.c: 363:         }
  2707                           	
  2708                           l173:
  2709  000384                     	line	365
  2710                           	
  2711                           l2292:
  2712  000384                     ;main.c: 365:         if (PORTCbits.RC2==1 && enableUP==1){
  2713                           	btfss	((c:3970)),c,2	;volatile
  2714  000384  A482               	goto	u2371
  2715  000386  EFC7  F001         	goto	u2370
  2716  00038A  EFC9  F001         u2371:
  2717  00038E                     	goto	l2398
  2718  00038E  EF5E  F003         u2370:
  2719  000392                     	
  2720                           l2294:
  2721  000392                     		decf	((c:_enableUP)),c,w
  2722  000392  0453               iorwf	((c:_enableUP+1)),c,w
  2723  000394  1054               	btfss	status,2
  2724  000396  A4D8               	goto	u2381
  2725  000398  EFD0  F001         	goto	u2380
  2726  00039C  EFD2  F001         
  2727                           u2381:
  2728  0003A0                     	goto	l2398
  2729  0003A0  EF5E  F003         u2380:
  2730  0003A4                     	line	366
  2731                           	
  2732                           l2296:
  2733  0003A4                     ;main.c: 366:             index++;
  2734                           	infsnz	((c:_index)),c
  2735  0003A4  4A5B               	incf	((c:_index+1)),c
  2736  0003A6  2A5C               	line	367
  2737                           	
  2738                           l2298:
  2739  0003A8                     ;main.c: 367:             enableUP=0;
  2740                           	movlw	high(0)
  2741  0003A8  0E00               	movwf	((c:_enableUP+1)),c
  2742  0003AA  6E54               	movlw	low(0)
  2743  0003AC  0E00               	movwf	((c:_enableUP)),c
  2744  0003AE  6E53               	line	368
  2745                           	
  2746                           l2300:
  2747  0003B0                     ;main.c: 368:             enableDOWN=1;
  2748                           	movlw	high(01h)
  2749  0003B0  0E00               	movwf	((c:_enableDOWN+1)),c
  2750  0003B2  6E5A               	movlw	low(01h)
  2751  0003B4  0E01               	movwf	((c:_enableDOWN)),c
  2752  0003B6  6E59               	line	369
  2753                           	
  2754                           l2302:
  2755  0003B8                     ;main.c: 369:             if (index==37){
  2756                           		movlw	37
  2757  0003B8  0E25               	xorwf	((c:_index)),c,w
  2758  0003BA  185B               iorwf	((c:_index+1)),c,w
  2759  0003BC  105C               	btfss	status,2
  2760  0003BE  A4D8               	goto	u2391
  2761  0003C0  EFE4  F001         	goto	u2390
  2762  0003C4  EFE6  F001         
  2763                           u2391:
  2764  0003C8                     	goto	l2308
  2765  0003C8  EFF4  F001         u2390:
  2766  0003CC                     	line	370
  2767                           	
  2768                           l2304:
  2769  0003CC                     ;main.c: 370:                 timerValue[0]=getTimeUS();
  2770                           	call	_getTimeUS	;wreg free
  2771  0003CC  EC33  F011         	movff	0+?_getTimeUS,(_timerValue)
  2772  0003D0  C01B  F100         	movff	1+?_getTimeUS,(_timerValue+1)
  2773  0003D4  C01C  F101         	movff	2+?_getTimeUS,(_timerValue+2)
  2774  0003D8  C01D  F102         	movff	3+?_getTimeUS,(_timerValue+3)
  2775  0003DC  C01E  F103         	
  2776                           	line	371
  2777                           	
  2778                           l2306:
  2779  0003E0                     ;main.c: 371:                 initgetUS();
  2780                           	call	_initgetUS	;wreg free
  2781  0003E0  ECA1  F011         	goto	l2308
  2782  0003E4  EFF4  F001         	line	373
  2783                           ;main.c: 373:             }
  2784                           	
  2785                           l192:
  2786  0003E8                     	line	375
  2787                           	
  2788                           l2308:
  2789  0003E8                     ;main.c: 375:             if (index==39){
  2790                           		movlw	39
  2791  0003E8  0E27               	xorwf	((c:_index)),c,w
  2792  0003EA  185B               iorwf	((c:_index+1)),c,w
  2793  0003EC  105C               	btfss	status,2
  2794  0003EE  A4D8               	goto	u2401
  2795  0003F0  EFFC  F001         	goto	u2400
  2796  0003F4  EFFE  F001         
  2797                           u2401:
  2798  0003F8                     	goto	l2314
  2799  0003F8  EF0C  F002         u2400:
  2800  0003FC                     	line	376
  2801                           	
  2802                           l2310:
  2803  0003FC                     ;main.c: 376:                 timerValue[2]=getTimeUS();
  2804                           	call	_getTimeUS	;wreg free
  2805  0003FC  EC33  F011         	movff	0+?_getTimeUS,0+(_timerValue+08h)
  2806  000400  C01B  F108         	movff	1+?_getTimeUS,1+(_timerValue+08h)
  2807  000404  C01C  F109         	movff	2+?_getTimeUS,2+(_timerValue+08h)
  2808  000408  C01D  F10A         	movff	3+?_getTimeUS,3+(_timerValue+08h)
  2809  00040C  C01E  F10B         	
  2810                           	line	377
  2811                           	
  2812                           l2312:
  2813  000410                     ;main.c: 377:                 initgetUS();
  2814                           	call	_initgetUS	;wreg free
  2815  000410  ECA1  F011         	goto	l2314
  2816  000414  EF0C  F002         	line	379
  2817                           ;main.c: 379:             }
  2818                           	
  2819                           l193:
  2820  000418                     	line	381
  2821                           	
  2822                           l2314:
  2823  000418                     ;main.c: 381:             if (index==41){
  2824                           		movlw	41
  2825  000418  0E29               	xorwf	((c:_index)),c,w
  2826  00041A  185B               iorwf	((c:_index+1)),c,w
  2827  00041C  105C               	btfss	status,2
  2828  00041E  A4D8               	goto	u2411
  2829  000420  EF14  F002         	goto	u2410
  2830  000424  EF16  F002         
  2831                           u2411:
  2832  000428                     	goto	l2320
  2833  000428  EF24  F002         u2410:
  2834  00042C                     	line	382
  2835                           	
  2836                           l2316:
  2837  00042C                     ;main.c: 382:                 timerValue[4]=getTimeUS();
  2838                           	call	_getTimeUS	;wreg free
  2839  00042C  EC33  F011         	movff	0+?_getTimeUS,0+(_timerValue+010h)
  2840  000430  C01B  F110         	movff	1+?_getTimeUS,1+(_timerValue+010h)
  2841  000434  C01C  F111         	movff	2+?_getTimeUS,2+(_timerValue+010h)
  2842  000438  C01D  F112         	movff	3+?_getTimeUS,3+(_timerValue+010h)
  2843  00043C  C01E  F113         	
  2844                           	line	383
  2845                           	
  2846                           l2318:
  2847  000440                     ;main.c: 383:                 initgetUS();
  2848                           	call	_initgetUS	;wreg free
  2849  000440  ECA1  F011         	goto	l2320
  2850  000444  EF24  F002         	line	385
  2851                           ;main.c: 385:             }
  2852                           	
  2853                           l194:
  2854  000448                     	line	387
  2855                           	
  2856                           l2320:
  2857  000448                     ;main.c: 387:             if (index==43){
  2858                           		movlw	43
  2859  000448  0E2B               	xorwf	((c:_index)),c,w
  2860  00044A  185B               iorwf	((c:_index+1)),c,w
  2861  00044C  105C               	btfss	status,2
  2862  00044E  A4D8               	goto	u2421
  2863  000450  EF2C  F002         	goto	u2420
  2864  000454  EF2E  F002         
  2865                           u2421:
  2866  000458                     	goto	l2326
  2867  000458  EF3C  F002         u2420:
  2868  00045C                     	line	388
  2869                           	
  2870                           l2322:
  2871  00045C                     ;main.c: 388:                 timerValue[6]=getTimeUS();
  2872                           	call	_getTimeUS	;wreg free
  2873  00045C  EC33  F011         	movff	0+?_getTimeUS,0+(_timerValue+018h)
  2874  000460  C01B  F118         	movff	1+?_getTimeUS,1+(_timerValue+018h)
  2875  000464  C01C  F119         	movff	2+?_getTimeUS,2+(_timerValue+018h)
  2876  000468  C01D  F11A         	movff	3+?_getTimeUS,3+(_timerValue+018h)
  2877  00046C  C01E  F11B         	
  2878                           	line	389
  2879                           	
  2880                           l2324:
  2881  000470                     ;main.c: 389:                 initgetUS();
  2882                           	call	_initgetUS	;wreg free
  2883  000470  ECA1  F011         	goto	l2326
  2884  000474  EF3C  F002         	line	391
  2885                           ;main.c: 391:             }
  2886                           	
  2887                           l195:
  2888  000478                     	line	393
  2889                           	
  2890                           l2326:
  2891  000478                     ;main.c: 393:             if (index==45){
  2892                           		movlw	45
  2893  000478  0E2D               	xorwf	((c:_index)),c,w
  2894  00047A  185B               iorwf	((c:_index+1)),c,w
  2895  00047C  105C               	btfss	status,2
  2896  00047E  A4D8               	goto	u2431
  2897  000480  EF44  F002         	goto	u2430
  2898  000484  EF46  F002         
  2899                           u2431:
  2900  000488                     	goto	l2332
  2901  000488  EF54  F002         u2430:
  2902  00048C                     	line	394
  2903                           	
  2904                           l2328:
  2905  00048C                     ;main.c: 394:                 timerValue[8]=getTimeUS();
  2906                           	call	_getTimeUS	;wreg free
  2907  00048C  EC33  F011         	movff	0+?_getTimeUS,0+(_timerValue+020h)
  2908  000490  C01B  F120         	movff	1+?_getTimeUS,1+(_timerValue+020h)
  2909  000494  C01C  F121         	movff	2+?_getTimeUS,2+(_timerValue+020h)
  2910  000498  C01D  F122         	movff	3+?_getTimeUS,3+(_timerValue+020h)
  2911  00049C  C01E  F123         	
  2912                           	line	395
  2913                           	
  2914                           l2330:
  2915  0004A0                     ;main.c: 395:                 initgetUS();
  2916                           	call	_initgetUS	;wreg free
  2917  0004A0  ECA1  F011         	goto	l2332
  2918  0004A4  EF54  F002         	line	397
  2919                           ;main.c: 397:             }
  2920                           	
  2921                           l196:
  2922  0004A8                     	line	399
  2923                           	
  2924                           l2332:
  2925  0004A8                     ;main.c: 399:             if (index==47){
  2926                           		movlw	47
  2927  0004A8  0E2F               	xorwf	((c:_index)),c,w
  2928  0004AA  185B               iorwf	((c:_index+1)),c,w
  2929  0004AC  105C               	btfss	status,2
  2930  0004AE  A4D8               	goto	u2441
  2931  0004B0  EF5C  F002         	goto	u2440
  2932  0004B4  EF5E  F002         
  2933                           u2441:
  2934  0004B8                     	goto	l2338
  2935  0004B8  EF6C  F002         u2440:
  2936  0004BC                     	line	400
  2937                           	
  2938                           l2334:
  2939  0004BC                     ;main.c: 400:                 timerValue[10]=getTimeUS();
  2940                           	call	_getTimeUS	;wreg free
  2941  0004BC  EC33  F011         	movff	0+?_getTimeUS,0+(_timerValue+028h)
  2942  0004C0  C01B  F128         	movff	1+?_getTimeUS,1+(_timerValue+028h)
  2943  0004C4  C01C  F129         	movff	2+?_getTimeUS,2+(_timerValue+028h)
  2944  0004C8  C01D  F12A         	movff	3+?_getTimeUS,3+(_timerValue+028h)
  2945  0004CC  C01E  F12B         	
  2946                           	line	401
  2947                           	
  2948                           l2336:
  2949  0004D0                     ;main.c: 401:                 initgetUS();
  2950                           	call	_initgetUS	;wreg free
  2951  0004D0  ECA1  F011         	goto	l2338
  2952  0004D4  EF6C  F002         	line	403
  2953                           ;main.c: 403:             }
  2954                           	
  2955                           l197:
  2956  0004D8                     	line	405
  2957                           	
  2958                           l2338:
  2959  0004D8                     ;main.c: 405:             if (index==49){
  2960                           		movlw	49
  2961  0004D8  0E31               	xorwf	((c:_index)),c,w
  2962  0004DA  185B               iorwf	((c:_index+1)),c,w
  2963  0004DC  105C               	btfss	status,2
  2964  0004DE  A4D8               	goto	u2451
  2965  0004E0  EF74  F002         	goto	u2450
  2966  0004E4  EF76  F002         
  2967                           u2451:
  2968  0004E8                     	goto	l2344
  2969  0004E8  EF84  F002         u2450:
  2970  0004EC                     	line	406
  2971                           	
  2972                           l2340:
  2973  0004EC                     ;main.c: 406:                 timerValue[12]=getTimeUS();
  2974                           	call	_getTimeUS	;wreg free
  2975  0004EC  EC33  F011         	movff	0+?_getTimeUS,0+(_timerValue+030h)
  2976  0004F0  C01B  F130         	movff	1+?_getTimeUS,1+(_timerValue+030h)
  2977  0004F4  C01C  F131         	movff	2+?_getTimeUS,2+(_timerValue+030h)
  2978  0004F8  C01D  F132         	movff	3+?_getTimeUS,3+(_timerValue+030h)
  2979  0004FC  C01E  F133         	
  2980                           	line	407
  2981                           	
  2982                           l2342:
  2983  000500                     ;main.c: 407:                 initgetUS();
  2984                           	call	_initgetUS	;wreg free
  2985  000500  ECA1  F011         	goto	l2344
  2986  000504  EF84  F002         	line	409
  2987                           ;main.c: 409:             }
  2988                           	
  2989                           l198:
  2990  000508                     	line	411
  2991                           	
  2992                           l2344:
  2993  000508                     ;main.c: 411:             if (index==51){
  2994                           		movlw	51
  2995  000508  0E33               	xorwf	((c:_index)),c,w
  2996  00050A  185B               iorwf	((c:_index+1)),c,w
  2997  00050C  105C               	btfss	status,2
  2998  00050E  A4D8               	goto	u2461
  2999  000510  EF8C  F002         	goto	u2460
  3000  000514  EF8E  F002         
  3001                           u2461:
  3002  000518                     	goto	l2350
  3003  000518  EF9C  F002         u2460:
  3004  00051C                     	line	412
  3005                           	
  3006                           l2346:
  3007  00051C                     ;main.c: 412:                 timerValue[14]=getTimeUS();
  3008                           	call	_getTimeUS	;wreg free
  3009  00051C  EC33  F011         	movff	0+?_getTimeUS,0+(_timerValue+038h)
  3010  000520  C01B  F138         	movff	1+?_getTimeUS,1+(_timerValue+038h)
  3011  000524  C01C  F139         	movff	2+?_getTimeUS,2+(_timerValue+038h)
  3012  000528  C01D  F13A         	movff	3+?_getTimeUS,3+(_timerValue+038h)
  3013  00052C  C01E  F13B         	
  3014                           	line	413
  3015                           	
  3016                           l2348:
  3017  000530                     ;main.c: 413:                 initgetUS();
  3018                           	call	_initgetUS	;wreg free
  3019  000530  ECA1  F011         	goto	l2350
  3020  000534  EF9C  F002         	line	415
  3021                           ;main.c: 415:             }
  3022                           	
  3023                           l199:
  3024  000538                     	line	417
  3025                           	
  3026                           l2350:
  3027  000538                     ;main.c: 417:             if (index==53){
  3028                           		movlw	53
  3029  000538  0E35               	xorwf	((c:_index)),c,w
  3030  00053A  185B               iorwf	((c:_index+1)),c,w
  3031  00053C  105C               	btfss	status,2
  3032  00053E  A4D8               	goto	u2471
  3033  000540  EFA4  F002         	goto	u2470
  3034  000544  EFA6  F002         
  3035                           u2471:
  3036  000548                     	goto	l2356
  3037  000548  EFB4  F002         u2470:
  3038  00054C                     	line	418
  3039                           	
  3040                           l2352:
  3041  00054C                     ;main.c: 418:                 timerValue[16]=getTimeUS();
  3042                           	call	_getTimeUS	;wreg free
  3043  00054C  EC33  F011         	movff	0+?_getTimeUS,0+(_timerValue+040h)
  3044  000550  C01B  F140         	movff	1+?_getTimeUS,1+(_timerValue+040h)
  3045  000554  C01C  F141         	movff	2+?_getTimeUS,2+(_timerValue+040h)
  3046  000558  C01D  F142         	movff	3+?_getTimeUS,3+(_timerValue+040h)
  3047  00055C  C01E  F143         	
  3048                           	line	419
  3049                           	
  3050                           l2354:
  3051  000560                     ;main.c: 419:                 initgetUS();
  3052                           	call	_initgetUS	;wreg free
  3053  000560  ECA1  F011         	goto	l2356
  3054  000564  EFB4  F002         	line	421
  3055                           ;main.c: 421:             }
  3056                           	
  3057                           l200:
  3058  000568                     	line	423
  3059                           	
  3060                           l2356:
  3061  000568                     ;main.c: 423:             if (index==55){
  3062                           		movlw	55
  3063  000568  0E37               	xorwf	((c:_index)),c,w
  3064  00056A  185B               iorwf	((c:_index+1)),c,w
  3065  00056C  105C               	btfss	status,2
  3066  00056E  A4D8               	goto	u2481
  3067  000570  EFBC  F002         	goto	u2480
  3068  000574  EFBE  F002         
  3069                           u2481:
  3070  000578                     	goto	l2362
  3071  000578  EFCC  F002         u2480:
  3072  00057C                     	line	424
  3073                           	
  3074                           l2358:
  3075  00057C                     ;main.c: 424:                 timerValue[18]=getTimeUS();
  3076                           	call	_getTimeUS	;wreg free
  3077  00057C  EC33  F011         	movff	0+?_getTimeUS,0+(_timerValue+048h)
  3078  000580  C01B  F148         	movff	1+?_getTimeUS,1+(_timerValue+048h)
  3079  000584  C01C  F149         	movff	2+?_getTimeUS,2+(_timerValue+048h)
  3080  000588  C01D  F14A         	movff	3+?_getTimeUS,3+(_timerValue+048h)
  3081  00058C  C01E  F14B         	
  3082                           	line	425
  3083                           	
  3084                           l2360:
  3085  000590                     ;main.c: 425:                 initgetUS();
  3086                           	call	_initgetUS	;wreg free
  3087  000590  ECA1  F011         	goto	l2362
  3088  000594  EFCC  F002         	line	427
  3089                           ;main.c: 427:             }
  3090                           	
  3091                           l201:
  3092  000598                     	line	429
  3093                           	
  3094                           l2362:
  3095  000598                     ;main.c: 429:             if (index==57){
  3096                           		movlw	57
  3097  000598  0E39               	xorwf	((c:_index)),c,w
  3098  00059A  185B               iorwf	((c:_index+1)),c,w
  3099  00059C  105C               	btfss	status,2
  3100  00059E  A4D8               	goto	u2491
  3101  0005A0  EFD4  F002         	goto	u2490
  3102  0005A4  EFD6  F002         
  3103                           u2491:
  3104  0005A8                     	goto	l2368
  3105  0005A8  EFE4  F002         u2490:
  3106  0005AC                     	line	430
  3107                           	
  3108                           l2364:
  3109  0005AC                     ;main.c: 430:                 timerValue[20]=getTimeUS();
  3110                           	call	_getTimeUS	;wreg free
  3111  0005AC  EC33  F011         	movff	0+?_getTimeUS,0+(_timerValue+050h)
  3112  0005B0  C01B  F150         	movff	1+?_getTimeUS,1+(_timerValue+050h)
  3113  0005B4  C01C  F151         	movff	2+?_getTimeUS,2+(_timerValue+050h)
  3114  0005B8  C01D  F152         	movff	3+?_getTimeUS,3+(_timerValue+050h)
  3115  0005BC  C01E  F153         	
  3116                           	line	431
  3117                           	
  3118                           l2366:
  3119  0005C0                     ;main.c: 431:                 initgetUS();
  3120                           	call	_initgetUS	;wreg free
  3121  0005C0  ECA1  F011         	goto	l2368
  3122  0005C4  EFE4  F002         	line	433
  3123                           ;main.c: 433:             }
  3124                           	
  3125                           l202:
  3126  0005C8                     	line	435
  3127                           	
  3128                           l2368:
  3129  0005C8                     ;main.c: 435:             if (index==59){
  3130                           		movlw	59
  3131  0005C8  0E3B               	xorwf	((c:_index)),c,w
  3132  0005CA  185B               iorwf	((c:_index+1)),c,w
  3133  0005CC  105C               	btfss	status,2
  3134  0005CE  A4D8               	goto	u2501
  3135  0005D0  EFEC  F002         	goto	u2500
  3136  0005D4  EFEE  F002         
  3137                           u2501:
  3138  0005D8                     	goto	l2374
  3139  0005D8  EFFC  F002         u2500:
  3140  0005DC                     	line	436
  3141                           	
  3142                           l2370:
  3143  0005DC                     ;main.c: 436:                 timerValue[22]=getTimeUS();
  3144                           	call	_getTimeUS	;wreg free
  3145  0005DC  EC33  F011         	movff	0+?_getTimeUS,0+(_timerValue+058h)
  3146  0005E0  C01B  F158         	movff	1+?_getTimeUS,1+(_timerValue+058h)
  3147  0005E4  C01C  F159         	movff	2+?_getTimeUS,2+(_timerValue+058h)
  3148  0005E8  C01D  F15A         	movff	3+?_getTimeUS,3+(_timerValue+058h)
  3149  0005EC  C01E  F15B         	
  3150                           	line	437
  3151                           	
  3152                           l2372:
  3153  0005F0                     ;main.c: 437:                 initgetUS();
  3154                           	call	_initgetUS	;wreg free
  3155  0005F0  ECA1  F011         	goto	l2374
  3156  0005F4  EFFC  F002         	line	439
  3157                           ;main.c: 439:             }
  3158                           	
  3159                           l203:
  3160  0005F8                     	line	441
  3161                           	
  3162                           l2374:
  3163  0005F8                     ;main.c: 441:             if (index==61){
  3164                           		movlw	61
  3165  0005F8  0E3D               	xorwf	((c:_index)),c,w
  3166  0005FA  185B               iorwf	((c:_index+1)),c,w
  3167  0005FC  105C               	btfss	status,2
  3168  0005FE  A4D8               	goto	u2511
  3169  000600  EF04  F003         	goto	u2510
  3170  000604  EF06  F003         
  3171                           u2511:
  3172  000608                     	goto	l2380
  3173  000608  EF14  F003         u2510:
  3174  00060C                     	line	442
  3175                           	
  3176                           l2376:
  3177  00060C                     ;main.c: 442:                 timerValue[24]=getTimeUS();
  3178                           	call	_getTimeUS	;wreg free
  3179  00060C  EC33  F011         	movff	0+?_getTimeUS,0+(_timerValue+060h)
  3180  000610  C01B  F160         	movff	1+?_getTimeUS,1+(_timerValue+060h)
  3181  000614  C01C  F161         	movff	2+?_getTimeUS,2+(_timerValue+060h)
  3182  000618  C01D  F162         	movff	3+?_getTimeUS,3+(_timerValue+060h)
  3183  00061C  C01E  F163         	
  3184                           	line	443
  3185                           	
  3186                           l2378:
  3187  000620                     ;main.c: 443:                 initgetUS();
  3188                           	call	_initgetUS	;wreg free
  3189  000620  ECA1  F011         	goto	l2380
  3190  000624  EF14  F003         	line	445
  3191                           ;main.c: 445:             }
  3192                           	
  3193                           l204:
  3194  000628                     	line	447
  3195                           	
  3196                           l2380:
  3197  000628                     ;main.c: 447:             if (index==63){
  3198                           		movlw	63
  3199  000628  0E3F               	xorwf	((c:_index)),c,w
  3200  00062A  185B               iorwf	((c:_index+1)),c,w
  3201  00062C  105C               	btfss	status,2
  3202  00062E  A4D8               	goto	u2521
  3203  000630  EF1C  F003         	goto	u2520
  3204  000634  EF1E  F003         
  3205                           u2521:
  3206  000638                     	goto	l2386
  3207  000638  EF2C  F003         u2520:
  3208  00063C                     	line	448
  3209                           	
  3210                           l2382:
  3211  00063C                     ;main.c: 448:                 timerValue[26]=getTimeUS();
  3212                           	call	_getTimeUS	;wreg free
  3213  00063C  EC33  F011         	movff	0+?_getTimeUS,0+(_timerValue+068h)
  3214  000640  C01B  F168         	movff	1+?_getTimeUS,1+(_timerValue+068h)
  3215  000644  C01C  F169         	movff	2+?_getTimeUS,2+(_timerValue+068h)
  3216  000648  C01D  F16A         	movff	3+?_getTimeUS,3+(_timerValue+068h)
  3217  00064C  C01E  F16B         	
  3218                           	line	449
  3219                           	
  3220                           l2384:
  3221  000650                     ;main.c: 449:                 initgetUS();
  3222                           	call	_initgetUS	;wreg free
  3223  000650  ECA1  F011         	goto	l2386
  3224  000654  EF2C  F003         	line	451
  3225                           ;main.c: 451:             }
  3226                           	
  3227                           l205:
  3228  000658                     	line	453
  3229                           	
  3230                           l2386:
  3231  000658                     ;main.c: 453:              if (index==65){
  3232                           		movlw	65
  3233  000658  0E41               	xorwf	((c:_index)),c,w
  3234  00065A  185B               iorwf	((c:_index+1)),c,w
  3235  00065C  105C               	btfss	status,2
  3236  00065E  A4D8               	goto	u2531
  3237  000660  EF34  F003         	goto	u2530
  3238  000664  EF36  F003         
  3239                           u2531:
  3240  000668                     	goto	l2392
  3241  000668  EF44  F003         u2530:
  3242  00066C                     	line	454
  3243                           	
  3244                           l2388:
  3245  00066C                     ;main.c: 454:                 timerValue[28]=getTimeUS();
  3246                           	call	_getTimeUS	;wreg free
  3247  00066C  EC33  F011         	movff	0+?_getTimeUS,0+(_timerValue+070h)
  3248  000670  C01B  F170         	movff	1+?_getTimeUS,1+(_timerValue+070h)
  3249  000674  C01C  F171         	movff	2+?_getTimeUS,2+(_timerValue+070h)
  3250  000678  C01D  F172         	movff	3+?_getTimeUS,3+(_timerValue+070h)
  3251  00067C  C01E  F173         	
  3252                           	line	455
  3253                           	
  3254                           l2390:
  3255  000680                     ;main.c: 455:                 initgetUS();
  3256                           	call	_initgetUS	;wreg free
  3257  000680  ECA1  F011         	goto	l2392
  3258  000684  EF44  F003         	line	457
  3259                           ;main.c: 457:             }
  3260                           	
  3261                           l206:
  3262  000688                     	line	460
  3263                           	
  3264                           l2392:
  3265  000688                     ;main.c: 460:             if (index==67){
  3266                           		movlw	67
  3267  000688  0E43               	xorwf	((c:_index)),c,w
  3268  00068A  185B               iorwf	((c:_index+1)),c,w
  3269  00068C  105C               	btfss	status,2
  3270  00068E  A4D8               	goto	u2541
  3271  000690  EF4C  F003         	goto	u2540
  3272  000694  EF4E  F003         
  3273                           u2541:
  3274  000698                     	goto	l2398
  3275  000698  EF5E  F003         u2540:
  3276  00069C                     	line	461
  3277                           	
  3278                           l2394:
  3279  00069C                     ;main.c: 461:                 timerValue[30]=getTimeUS();
  3280                           	call	_getTimeUS	;wreg free
  3281  00069C  EC33  F011         	movff	0+?_getTimeUS,0+(_timerValue+078h)
  3282  0006A0  C01B  F178         	movff	1+?_getTimeUS,1+(_timerValue+078h)
  3283  0006A4  C01C  F179         	movff	2+?_getTimeUS,2+(_timerValue+078h)
  3284  0006A8  C01D  F17A         	movff	3+?_getTimeUS,3+(_timerValue+078h)
  3285  0006AC  C01E  F17B         	
  3286                           	line	462
  3287                           	
  3288                           l2396:
  3289  0006B0                     ;main.c: 462:                 initgetUS();
  3290                           	call	_initgetUS	;wreg free
  3291  0006B0  ECA1  F011         	goto	l2398
  3292  0006B4  EF5E  F003         	line	463
  3293                           ;main.c: 463:             }
  3294                           	
  3295                           l207:
  3296  0006B8                     	goto	l2398
  3297  0006B8  EF5E  F003         	line	465
  3298                           ;main.c: 465:         }
  3299                           	
  3300                           l191:
  3301  0006BC                     	line	467
  3302                           	
  3303                           l2398:
  3304  0006BC                     ;main.c: 467:         if (enableDOWN==0 && enableUP==0){
  3305                           	movf	((c:_enableDOWN)),c,w
  3306  0006BC  5059               iorwf	((c:_enableDOWN+1)),c,w
  3307  0006BE  105A               	btfss	status,2
  3308  0006C0  A4D8               	goto	u2551
  3309  0006C2  EF65  F003         	goto	u2550
  3310  0006C6  EF67  F003         
  3311                           u2551:
  3312  0006CA                     	goto	l2178
  3313  0006CA  EF10  F000         u2550:
  3314  0006CE                     	
  3315                           l2400:
  3316  0006CE                     	movf	((c:_enableUP)),c,w
  3317  0006CE  5053               iorwf	((c:_enableUP+1)),c,w
  3318  0006D0  1054               	btfss	status,2
  3319  0006D2  A4D8               	goto	u2561
  3320  0006D4  EF6E  F003         	goto	u2560
  3321  0006D8  EF70  F003         
  3322                           u2561:
  3323  0006DC                     	goto	l2178
  3324  0006DC  EF10  F000         u2560:
  3325  0006E0                     	line	468
  3326                           	
  3327                           l2402:
  3328  0006E0                     ;main.c: 468:             int comando=compareSignals();
  3329                           	call	_compareSignals	;wreg free
  3330  0006E0  EC02  F00E         	movff	0+?_compareSignals,(c:main@comando)
  3331  0006E4  C029  F047         	movff	1+?_compareSignals,(c:main@comando+1)
  3332  0006E8  C02A  F048         	line	469
  3333                           	
  3334                           l2404:
  3335  0006EC                     ;main.c: 469:             if (comando==1){
  3336                           		decf	((c:main@comando)),c,w
  3337  0006EC  0447               iorwf	((c:main@comando+1)),c,w
  3338  0006EE  1048               	btfss	status,2
  3339  0006F0  A4D8               	goto	u2571
  3340  0006F2  EF7D  F003         	goto	u2570
  3341  0006F6  EF7F  F003         
  3342                           u2571:
  3343  0006FA                     	goto	l2408
  3344  0006FA  EF83  F003         u2570:
  3345  0006FE                     	line	470
  3346                           	
  3347                           l2406:
  3348  0006FE                     ;main.c: 470:                 Stop();
  3349                           	call	_Stop	;wreg free
  3350  0006FE  ECB2  F011         	goto	l2408
  3351  000702  EF83  F003         	line	474
  3352                           ;main.c: 474:             }
  3353                           	
  3354                           l209:
  3355  000706                     	line	476
  3356                           	
  3357                           l2408:
  3358  000706                     ;main.c: 476:             if (comando==2){
  3359                           		movlw	2
  3360  000706  0E02               	xorwf	((c:main@comando)),c,w
  3361  000708  1847               iorwf	((c:main@comando+1)),c,w
  3362  00070A  1048               	btfss	status,2
  3363  00070C  A4D8               	goto	u2581
  3364  00070E  EF8B  F003         	goto	u2580
  3365  000712  EF8D  F003         
  3366                           u2581:
  3367  000716                     	goto	l2412
  3368  000716  EF91  F003         u2580:
  3369  00071A                     	line	477
  3370                           	
  3371                           l2410:
  3372  00071A                     ;main.c: 477:                 Right();
  3373                           	call	_Right	;wreg free
  3374  00071A  ECB7  F011         	goto	l2412
  3375  00071E  EF91  F003         	line	481
  3376                           ;main.c: 481:             }
  3377                           	
  3378                           l210:
  3379  000722                     	line	483
  3380                           	
  3381                           l2412:
  3382  000722                     ;main.c: 483:             if (comando==3){
  3383                           		movlw	3
  3384  000722  0E03               	xorwf	((c:main@comando)),c,w
  3385  000724  1847               iorwf	((c:main@comando+1)),c,w
  3386  000726  1048               	btfss	status,2
  3387  000728  A4D8               	goto	u2591
  3388  00072A  EF99  F003         	goto	u2590
  3389  00072E  EF9B  F003         
  3390                           u2591:
  3391  000732                     	goto	l2416
  3392  000732  EF9F  F003         u2590:
  3393  000736                     	line	484
  3394                           	
  3395                           l2414:
  3396  000736                     ;main.c: 484:                 Left();
  3397                           	call	_Left	;wreg free
  3398  000736  ECC1  F011         	goto	l2416
  3399  00073A  EF9F  F003         	line	489
  3400                           ;main.c: 489:             }
  3401                           	
  3402                           l211:
  3403  00073E                     	line	491
  3404                           	
  3405                           l2416:
  3406  00073E                     ;main.c: 491:             if (comando==4){
  3407                           		movlw	4
  3408  00073E  0E04               	xorwf	((c:main@comando)),c,w
  3409  000740  1847               iorwf	((c:main@comando+1)),c,w
  3410  000742  1048               	btfss	status,2
  3411  000744  A4D8               	goto	u2601
  3412  000746  EFA7  F003         	goto	u2600
  3413  00074A  EFA9  F003         
  3414                           u2601:
  3415  00074E                     	goto	l2420
  3416  00074E  EFAD  F003         u2600:
  3417  000752                     	line	492
  3418                           	
  3419                           l2418:
  3420  000752                     ;main.c: 492:                 Forward();
  3421                           	call	_Forward	;wreg free
  3422  000752  ECC6  F011         	goto	l2420
  3423  000756  EFAD  F003         	line	496
  3424                           ;main.c: 496:             }
  3425                           	
  3426                           l212:
  3427  00075A                     	line	498
  3428                           	
  3429                           l2420:
  3430  00075A                     ;main.c: 498:             if (comando==5){
  3431                           		movlw	5
  3432  00075A  0E05               	xorwf	((c:main@comando)),c,w
  3433  00075C  1847               iorwf	((c:main@comando+1)),c,w
  3434  00075E  1048               	btfss	status,2
  3435  000760  A4D8               	goto	u2611
  3436  000762  EFB5  F003         	goto	u2610
  3437  000766  EFB7  F003         
  3438                           u2611:
  3439  00076A                     	goto	l2424
  3440  00076A  EFBB  F003         u2610:
  3441  00076E                     	line	499
  3442                           	
  3443                           l2422:
  3444  00076E                     ;main.c: 499:                 Reverse();
  3445                           	call	_Reverse	;wreg free
  3446  00076E  ECBC  F011         	goto	l2424
  3447  000772  EFBB  F003         	line	504
  3448                           ;main.c: 504:             }
  3449                           	
  3450                           l213:
  3451  000776                     	line	506
  3452                           	
  3453                           l2424:
  3454  000776                     ;main.c: 506:             enableDOWN=1;
  3455                           	movlw	high(01h)
  3456  000776  0E00               	movwf	((c:_enableDOWN+1)),c
  3457  000778  6E5A               	movlw	low(01h)
  3458  00077A  0E01               	movwf	((c:_enableDOWN)),c
  3459  00077C  6E59               	line	507
  3460                           	
  3461                           l2426:
  3462  00077E                     ;main.c: 507:             enableUP=0;
  3463                           	movlw	high(0)
  3464  00077E  0E00               	movwf	((c:_enableUP+1)),c
  3465  000780  6E54               	movlw	low(0)
  3466  000782  0E00               	movwf	((c:_enableUP)),c
  3467  000784  6E53               	line	509
  3468                           # 509 "main.c"
  3469                           reset ;# 
  3470  000786  00FF               psect	text0
  3471                           	goto	l2178
  3472  000788  EF10  F000         	line	510
  3473                           ;main.c: 510:         }
  3474                           	
  3475                           l208:
  3476  00078C                     	goto	l2178
  3477  00078C  EF10  F000         	line	511
  3478                           ;main.c: 511:     }
  3479                           	
  3480                           l214:
  3481  000790                     	goto	l2178
  3482  000790  EF10  F000         	
  3483                           l215:
  3484  000794                     	line	512
  3485                           	
  3486                           l216:
  3487  000794                     	global	start
  3488                           	goto	start
  3489  000794  EF07  F000         	opt stack 0
  3490                           GLOBAL	__end_of_main
  3491                           	__end_of_main:
  3492  000798                     	signat	_main,89
  3493                           	global	_initgetUS
  3494                           
  3495 ;; *************** function _initgetUS *****************
  3496 ;; Defined at:
  3497 ;;		line 70 in file "main.c"
  3498 ;; Parameters:    Size  Location     Type
  3499 ;;		None
  3500 ;; Auto vars:     Size  Location     Type
  3501 ;;		None
  3502 ;; Return value:  Size  Location     Type
  3503 ;;                  1    wreg      void 
  3504 ;; Registers used:
  3505 ;;		wreg, status,2
  3506 ;; Tracked objects:
  3507 ;;		On entry : 0/0
  3508 ;;		On exit  : 0/0
  3509 ;;		Unchanged: 0/0
  3510 ;; Data sizes:     COMRAM   BANK0   BANK1   BANK2   BANK3   BANK4   BANK5   BANK6   BANK7
  3511 ;;      Params:         0       0       0       0       0       0       0       0       0
  3512 ;;      Locals:         0       0       0       0       0       0       0       0       0
  3513 ;;      Temps:          0       0       0       0       0       0       0       0       0
  3514 ;;      Totals:         0       0       0       0       0       0       0       0       0
  3515 ;;Total ram usage:        0 bytes
  3516 ;; Hardware stack levels used:    1
  3517 ;; Hardware stack levels required when called:    2
  3518 ;; This function calls:
  3519 ;;		Nothing
  3520 ;; This function is called by:
  3521 ;;		_main
  3522 ;; This function uses a non-reentrant model
  3523 ;;
  3524                           psect	text1,class=CODE,space=0,reloc=2,group=0
  3525                           	line	70
  3526                           global __ptext1
  3527                           __ptext1:
  3528  002342                     psect	text1
  3529                           	file	"main.c"
  3530                           	line	70
  3531                           	global	__size_of_initgetUS
  3532                           	__size_of_initgetUS	equ	__end_of_initgetUS-_initgetUS
  3533  0000                     	
  3534                           _initgetUS:
  3535  002342                     ;incstack = 0
  3536                           	opt	stack 28
  3537                           	line	71
  3538                           	
  3539                           l2104:
  3540  002342                     ;main.c: 71:     TMR1=0;
  3541                           	movlw	high(0)
  3542  002342  0E00               	movwf	((c:4046+1)),c	;volatile
  3543  002344  6ECF               	movlw	low(0)
  3544  002346  0E00               	movwf	((c:4046)),c	;volatile
  3545  002348  6ECE               	line	72
  3546                           ;main.c: 72:     tmr1Overflow=0;
  3547                           	movlw	high(0)
  3548  00234A  0E00               	movwf	((c:_tmr1Overflow+1)),c
  3549  00234C  6E56               	movlw	low(0)
  3550  00234E  0E00               	movwf	((c:_tmr1Overflow)),c
  3551  002350  6E55               	line	75
  3552                           	
  3553                           l87:
  3554  002352                     	return	;funcret
  3555  002352  0012               	opt stack 0
  3556                           GLOBAL	__end_of_initgetUS
  3557                           	__end_of_initgetUS:
  3558  002354                     	signat	_initgetUS,89
  3559                           	global	_getTimeUS
  3560                           
  3561 ;; *************** function _getTimeUS *****************
  3562 ;; Defined at:
  3563 ;;		line 77 in file "main.c"
  3564 ;; Parameters:    Size  Location     Type
  3565 ;;		None
  3566 ;; Auto vars:     Size  Location     Type
  3567 ;;		None
  3568 ;; Return value:  Size  Location     Type
  3569 ;;                  4   26[COMRAM] void 
  3570 ;; Registers used:
  3571 ;;		wreg, status,2, status,0, cstack
  3572 ;; Tracked objects:
  3573 ;;		On entry : 0/0
  3574 ;;		On exit  : 0/0
  3575 ;;		Unchanged: 0/0
  3576 ;; Data sizes:     COMRAM   BANK0   BANK1   BANK2   BANK3   BANK4   BANK5   BANK6   BANK7
  3577 ;;      Params:         4       0       0       0       0       0       0       0       0
  3578 ;;      Locals:         0       0       0       0       0       0       0       0       0
  3579 ;;      Temps:          0       0       0       0       0       0       0       0       0
  3580 ;;      Totals:         4       0       0       0       0       0       0       0       0
  3581 ;;Total ram usage:        4 bytes
  3582 ;; Hardware stack levels used:    1
  3583 ;; Hardware stack levels required when called:    3
  3584 ;; This function calls:
  3585 ;;		___lmul
  3586 ;;		___xxtofl
  3587 ;; This function is called by:
  3588 ;;		_main
  3589 ;; This function uses a non-reentrant model
  3590 ;;
  3591                           psect	text2,class=CODE,space=0,reloc=2,group=0
  3592                           	line	77
  3593                           global __ptext2
  3594                           __ptext2:
  3595  002266                     psect	text2
  3596                           	file	"main.c"
  3597                           	line	77
  3598                           	global	__size_of_getTimeUS
  3599                           	__size_of_getTimeUS	equ	__end_of_getTimeUS-_getTimeUS
  3600  0000                     	
  3601                           _getTimeUS:
  3602  002266                     ;incstack = 0
  3603                           	opt	stack 27
  3604                           	line	78
  3605                           	
  3606                           l2106:
  3607  002266                     ;main.c: 78:     return ((tmr1Overflow*65535)+TMR1);
  3608                           	movff	(c:_tmr1Overflow),(c:___lmul@multiplier)
  3609  002266  C055  F001         	movff	(c:_tmr1Overflow+1),(c:___lmul@multiplier+1)
  3610  00226A  C056  F002         	movlw	0
  3611  00226E  0E00               	btfsc	((c:___lmul@multiplier+1)),c,7
  3612  002270  BE02               	movlw	-1
  3613  002272  0EFF               	movwf	((c:___lmul@multiplier+2)),c
  3614  002274  6E03               	movwf	((c:___lmul@multiplier+3)),c
  3615  002276  6E04               	movlw	low(0FFFFh)
  3616  002278  0EFF               	movwf	((c:___lmul@multiplicand)),c
  3617  00227A  6E05               	movlw	high(0FFFFh)
  3618  00227C  0EFF               	movwf	((c:___lmul@multiplicand+1)),c
  3619  00227E  6E06               	movlw	low highword(0FFFFh)
  3620  002280  0E00               	movwf	((c:___lmul@multiplicand+2)),c
  3621  002282  6E07               	movlw	high highword(0FFFFh)
  3622  002284  0E00               	movwf	((c:___lmul@multiplicand+3)),c
  3623  002286  6E08               	call	___lmul	;wreg free
  3624  002288  ECFA  F010         	movf	((c:4046)),c,w	;volatile
  3625  00228C  50CE               	addwf	(0+?___lmul),c,w
  3626  00228E  2401               	movwf	((c:___xxtofl@val)),c
  3627  002290  6E0D               	movf	((c:4046+1)),c,w	;volatile
  3628  002292  50CF               	addwfc	(1+?___lmul),c,w
  3629  002294  2002               	movwf	1+((c:___xxtofl@val)),c
  3630  002296  6E0E               	
  3631                           	movlw	0
  3632  002298  0E00               	addwfc	(2+?___lmul),c,w
  3633  00229A  2003               	movwf	2+((c:___xxtofl@val)),c
  3634  00229C  6E0F               	
  3635                           	movlw	0
  3636  00229E  0E00               	addwfc	(3+?___lmul),c,w
  3637  0022A0  2004               	movwf	3+((c:___xxtofl@val)),c
  3638  0022A2  6E10               	movlw	(01h)&0ffh
  3639  0022A4  0E01               	
  3640                           	call	___xxtofl
  3641  0022A6  EC60  F00C         	movff	0+?___xxtofl,(c:?_getTimeUS)
  3642  0022AA  C00D  F01B         	movff	1+?___xxtofl,(c:?_getTimeUS+1)
  3643  0022AE  C00E  F01C         	movff	2+?___xxtofl,(c:?_getTimeUS+2)
  3644  0022B2  C00F  F01D         	movff	3+?___xxtofl,(c:?_getTimeUS+3)
  3645  0022B6  C010  F01E         	
  3646                           	goto	l90
  3647  0022BA  EF5F  F011         	
  3648                           l2108:
  3649  0022BE                     	line	79
  3650                           	
  3651                           l90:
  3652  0022BE                     	return	;funcret
  3653  0022BE  0012               	opt stack 0
  3654                           GLOBAL	__end_of_getTimeUS
  3655                           	__end_of_getTimeUS:
  3656  0022C0                     	signat	_getTimeUS,92
  3657                           	global	___xxtofl
  3658                           
  3659 ;; *************** function ___xxtofl *****************
  3660 ;; Defined at:
  3661 ;;		line 10 in file "C:\Program Files (x86)\Microchip\xc8\v2.00\pic\sources\c99\common\xxtofl.c"
  3662 ;; Parameters:    Size  Location     Type
  3663 ;;  sign            1    wreg     unsigned char 
  3664 ;;  val             4   12[COMRAM] long 
  3665 ;; Auto vars:     Size  Location     Type
  3666 ;;  sign            1   20[COMRAM] unsigned char 
  3667 ;;  arg             4   22[COMRAM] unsigned long 
  3668 ;;  exp             1   21[COMRAM] unsigned char 
  3669 ;; Return value:  Size  Location     Type
  3670 ;;                  4   12[COMRAM] unsigned char 
  3671 ;; Registers used:
  3672 ;;		wreg, status,2, status,0
  3673 ;; Tracked objects:
  3674 ;;		On entry : 0/0
  3675 ;;		On exit  : 0/0
  3676 ;;		Unchanged: 0/0
  3677 ;; Data sizes:     COMRAM   BANK0   BANK1   BANK2   BANK3   BANK4   BANK5   BANK6   BANK7
  3678 ;;      Params:         4       0       0       0       0       0       0       0       0
  3679 ;;      Locals:         6       0       0       0       0       0       0       0       0
  3680 ;;      Temps:          4       0       0       0       0       0       0       0       0
  3681 ;;      Totals:        14       0       0       0       0       0       0       0       0
  3682 ;;Total ram usage:       14 bytes
  3683 ;; Hardware stack levels used:    1
  3684 ;; Hardware stack levels required when called:    2
  3685 ;; This function calls:
  3686 ;;		Nothing
  3687 ;; This function is called by:
  3688 ;;		_getTimeUS
  3689 ;;		_wait_in_ms
  3690 ;; This function uses a non-reentrant model
  3691 ;;
  3692                           psect	text3,class=CODE,space=0,reloc=2,group=1
  3693                           	file	"C:\Program Files (x86)\Microchip\xc8\v2.00\pic\sources\c99\common\xxtofl.c"
  3694                           	line	10
  3695                           global __ptext3
  3696                           __ptext3:
  3697  0018C0                     psect	text3
  3698                           	file	"C:\Program Files (x86)\Microchip\xc8\v2.00\pic\sources\c99\common\xxtofl.c"
  3699                           	line	10
  3700                           	global	__size_of___xxtofl
  3701                           	__size_of___xxtofl	equ	__end_of___xxtofl-___xxtofl
  3702  0000                     	
  3703                           ___xxtofl:
  3704  0018C0                     ;incstack = 0
  3705                           	opt	stack 27
  3706                           ;___xxtofl@sign stored from wreg
  3707                           	movwf	((c:___xxtofl@sign)),c
  3708  0018C0  6E15               	line	15
  3709                           	
  3710                           l2040:
  3711  0018C2                     	movf	((c:___xxtofl@sign)),c,w
  3712  0018C2  5015               	btfsc	status,2
  3713  0018C4  B4D8               	goto	u2011
  3714  0018C6  EF67  F00C         	goto	u2010
  3715  0018CA  EF69  F00C         u2011:
  3716  0018CE                     	goto	l874
  3717  0018CE  EF8B  F00C         u2010:
  3718  0018D2                     	
  3719                           l2042:
  3720  0018D2                     	btfsc	((c:___xxtofl@val+3)),c,7
  3721  0018D2  BE10               	goto	u2020
  3722  0018D4  EF70  F00C         	goto	u2021
  3723  0018D8  EF6E  F00C         
  3724                           u2021:
  3725  0018DC                     	goto	l874
  3726  0018DC  EF8B  F00C         u2020:
  3727  0018E0                     	line	16
  3728                           	
  3729                           l2044:
  3730  0018E0                     	movff	(c:___xxtofl@val),??___xxtofl+0+0
  3731  0018E0  C00D  F011         	movff	(c:___xxtofl@val+1),??___xxtofl+0+0+1
  3732  0018E4  C00E  F012         	movff	(c:___xxtofl@val+2),??___xxtofl+0+0+2
  3733  0018E8  C00F  F013         	movff	(c:___xxtofl@val+3),??___xxtofl+0+0+3
  3734  0018EC  C010  F014         	comf	(??___xxtofl+0+0),c
  3735  0018F0  1E11               	comf	(??___xxtofl+0+1),c
  3736  0018F2  1E12               	comf	(??___xxtofl+0+2),c
  3737  0018F4  1E13               	comf	(??___xxtofl+0+3),c
  3738  0018F6  1E14               	incf	(??___xxtofl+0+0),c
  3739  0018F8  2A11               	movlw	0
  3740  0018FA  0E00               	addwfc	(??___xxtofl+0+1),c
  3741  0018FC  2212               	addwfc	(??___xxtofl+0+2),c
  3742  0018FE  2213               	addwfc	(??___xxtofl+0+3),c
  3743  001900  2214               	movff	??___xxtofl+0+0,(c:___xxtofl@arg)
  3744  001902  C011  F017         	movff	??___xxtofl+0+1,(c:___xxtofl@arg+1)
  3745  001906  C012  F018         	movff	??___xxtofl+0+2,(c:___xxtofl@arg+2)
  3746  00190A  C013  F019         	movff	??___xxtofl+0+3,(c:___xxtofl@arg+3)
  3747  00190E  C014  F01A         	line	17
  3748                           	goto	l2046
  3749  001912  EF95  F00C         	line	18
  3750                           	
  3751                           l874:
  3752  001916                     	line	19
  3753                           	movff	(c:___xxtofl@val),(c:___xxtofl@arg)
  3754  001916  C00D  F017         	movff	(c:___xxtofl@val+1),(c:___xxtofl@arg+1)
  3755  00191A  C00E  F018         	movff	(c:___xxtofl@val+2),(c:___xxtofl@arg+2)
  3756  00191E  C00F  F019         	movff	(c:___xxtofl@val+3),(c:___xxtofl@arg+3)
  3757  001922  C010  F01A         	goto	l2046
  3758  001926  EF95  F00C         	line	20
  3759                           	
  3760                           l875:
  3761  00192A                     	line	21
  3762                           	
  3763                           l2046:
  3764  00192A                     	movf	((c:___xxtofl@val)),c,w
  3765  00192A  500D               iorwf	((c:___xxtofl@val+1)),c,w
  3766  00192C  100E               iorwf	((c:___xxtofl@val+2)),c,w
  3767  00192E  100F               iorwf	((c:___xxtofl@val+3)),c,w
  3768  001930  1010               	btfss	status,2
  3769  001932  A4D8               	goto	u2031
  3770  001934  EF9E  F00C         	goto	u2030
  3771  001938  EFA0  F00C         
  3772                           u2031:
  3773  00193C                     	goto	l2052
  3774  00193C  EFAC  F00C         u2030:
  3775  001940                     	line	22
  3776                           	
  3777                           l2048:
  3778  001940                     	movlw	low(normalize32(0x0))
  3779  001940  0E00               	movwf	((c:?___xxtofl)),c
  3780  001942  6E0D               	movlw	high(normalize32(0x0))
  3781  001944  0E00               	movwf	((c:?___xxtofl+1)),c
  3782  001946  6E0E               	movlw	low highword(normalize32(0x0))
  3783  001948  0E00               	movwf	((c:?___xxtofl+2)),c
  3784  00194A  6E0F               	movlw	high highword(normalize32(0x0))
  3785  00194C  0E00               	movwf	((c:?___xxtofl+3)),c
  3786  00194E  6E10               	goto	l877
  3787  001950  EF4D  F00D         	
  3788                           l2050:
  3789  001954                     	goto	l877
  3790  001954  EF4D  F00D         	
  3791                           l876:
  3792  001958                     	line	23
  3793                           	
  3794                           l2052:
  3795  001958                     	movlw	low(096h)
  3796  001958  0E96               	movwf	((c:___xxtofl@exp)),c
  3797  00195A  6E16               	line	24
  3798                           	goto	l2056
  3799  00195C  EFB8  F00C         	
  3800                           l879:
  3801  001960                     	line	25
  3802                           	
  3803                           l2054:
  3804  001960                     	incf	((c:___xxtofl@exp)),c
  3805  001960  2A16               	line	26
  3806                           	bcf	status,0
  3807  001962  90D8               	rrcf	((c:___xxtofl@arg+3)),c
  3808  001964  321A               	rrcf	((c:___xxtofl@arg+2)),c
  3809  001966  3219               	rrcf	((c:___xxtofl@arg+1)),c
  3810  001968  3218               	rrcf	((c:___xxtofl@arg)),c
  3811  00196A  3217               	goto	l2056
  3812  00196C  EFB8  F00C         	line	27
  3813                           	
  3814                           l878:
  3815  001970                     	line	24
  3816                           	
  3817                           l2056:
  3818  001970                     	movlw	0
  3819  001970  0E00               	andwf	((c:___xxtofl@arg)),c,w
  3820  001972  1417               	movwf	(??___xxtofl+0+0)&0ffh,c
  3821  001974  6E11               	movlw	0
  3822  001976  0E00               	andwf	((c:___xxtofl@arg+1)),c,w
  3823  001978  1418               	movwf	1+(??___xxtofl+0+0)&0ffh,c
  3824  00197A  6E12               	
  3825                           	movlw	0
  3826  00197C  0E00               	andwf	((c:___xxtofl@arg+2)),c,w
  3827  00197E  1419               	movwf	2+(??___xxtofl+0+0)&0ffh,c
  3828  001980  6E13               	
  3829                           	movlw	0FEh
  3830  001982  0EFE               	andwf	((c:___xxtofl@arg+3)),c,w
  3831  001984  141A               	movwf	3+(??___xxtofl+0+0)&0ffh,c
  3832  001986  6E14               	movf	(??___xxtofl+0+0),c,w
  3833  001988  5011               iorwf	(??___xxtofl+0+1),c,w
  3834  00198A  1012               iorwf	(??___xxtofl+0+2),c,w
  3835  00198C  1013               iorwf	(??___xxtofl+0+3),c,w
  3836  00198E  1014               	btfss	status,2
  3837  001990  A4D8               	goto	u2041
  3838  001992  EFCD  F00C         	goto	u2040
  3839  001996  EFCF  F00C         
  3840                           u2041:
  3841  00199A                     	goto	l2054
  3842  00199A  EFB0  F00C         u2040:
  3843  00199E                     	goto	l881
  3844  00199E  EFDF  F00C         	
  3845                           l880:
  3846  0019A2                     	line	28
  3847                           	goto	l881
  3848  0019A2  EFDF  F00C         	
  3849                           l882:
  3850  0019A6                     	line	29
  3851                           	
  3852                           l2058:
  3853  0019A6                     	incf	((c:___xxtofl@exp)),c
  3854  0019A6  2A16               	line	30
  3855                           	
  3856                           l2060:
  3857  0019A8                     	movlw	low(01h)
  3858  0019A8  0E01               	addwf	((c:___xxtofl@arg)),c
  3859  0019AA  2617               	movlw	0
  3860  0019AC  0E00               	addwfc	((c:___xxtofl@arg+1)),c
  3861  0019AE  2218               	addwfc	((c:___xxtofl@arg+2)),c
  3862  0019B0  2219               	addwfc	((c:___xxtofl@arg+3)),c
  3863  0019B2  221A               	line	31
  3864                           	
  3865                           l2062:
  3866  0019B4                     	bcf	status,0
  3867  0019B4  90D8               	rrcf	((c:___xxtofl@arg+3)),c
  3868  0019B6  321A               	rrcf	((c:___xxtofl@arg+2)),c
  3869  0019B8  3219               	rrcf	((c:___xxtofl@arg+1)),c
  3870  0019BA  3218               	rrcf	((c:___xxtofl@arg)),c
  3871  0019BC  3217               	line	32
  3872                           	
  3873                           l881:
  3874  0019BE                     	line	28
  3875                           	movlw	0
  3876  0019BE  0E00               	andwf	((c:___xxtofl@arg)),c,w
  3877  0019C0  1417               	movwf	(??___xxtofl+0+0)&0ffh,c
  3878  0019C2  6E11               	movlw	0
  3879  0019C4  0E00               	andwf	((c:___xxtofl@arg+1)),c,w
  3880  0019C6  1418               	movwf	1+(??___xxtofl+0+0)&0ffh,c
  3881  0019C8  6E12               	
  3882                           	movlw	0
  3883  0019CA  0E00               	andwf	((c:___xxtofl@arg+2)),c,w
  3884  0019CC  1419               	movwf	2+(??___xxtofl+0+0)&0ffh,c
  3885  0019CE  6E13               	
  3886                           	movlw	0FFh
  3887  0019D0  0EFF               	andwf	((c:___xxtofl@arg+3)),c,w
  3888  0019D2  141A               	movwf	3+(??___xxtofl+0+0)&0ffh,c
  3889  0019D4  6E14               	movf	(??___xxtofl+0+0),c,w
  3890  0019D6  5011               iorwf	(??___xxtofl+0+1),c,w
  3891  0019D8  1012               iorwf	(??___xxtofl+0+2),c,w
  3892  0019DA  1013               iorwf	(??___xxtofl+0+3),c,w
  3893  0019DC  1014               	btfss	status,2
  3894  0019DE  A4D8               	goto	u2051
  3895  0019E0  EFF4  F00C         	goto	u2050
  3896  0019E4  EFF6  F00C         
  3897                           u2051:
  3898  0019E8                     	goto	l2058
  3899  0019E8  EFD3  F00C         u2050:
  3900  0019EC                     	goto	l2066
  3901  0019EC  EF02  F00D         	
  3902                           l883:
  3903  0019F0                     	line	33
  3904                           	goto	l2066
  3905  0019F0  EF02  F00D         	
  3906                           l885:
  3907  0019F4                     	line	34
  3908                           	
  3909                           l2064:
  3910  0019F4                     	decf	((c:___xxtofl@exp)),c
  3911  0019F4  0616               	line	35
  3912                           	bcf	status,0
  3913  0019F6  90D8               	rlcf	((c:___xxtofl@arg)),c
  3914  0019F8  3617               	rlcf	((c:___xxtofl@arg+1)),c
  3915  0019FA  3618               	rlcf	((c:___xxtofl@arg+2)),c
  3916  0019FC  3619               	rlcf	((c:___xxtofl@arg+3)),c
  3917  0019FE  361A               	goto	l2066
  3918  001A00  EF02  F00D         	line	36
  3919                           	
  3920                           l884:
  3921  001A04                     	line	33
  3922                           	
  3923                           l2066:
  3924  001A04                     	
  3925                           	btfsc	((c:___xxtofl@arg+2)),c,(23)&7
  3926  001A04  BE19               	goto	u2061
  3927  001A06  EF07  F00D         	goto	u2060
  3928  001A0A  EF09  F00D         u2061:
  3929  001A0E                     	goto	l888
  3930  001A0E  EF13  F00D         u2060:
  3931  001A12                     	
  3932                           l2068:
  3933  001A12                     		movlw	02h-0
  3934  001A12  0E02               	cpfslt	((c:___xxtofl@exp)),c
  3935  001A14  6016               	goto	u2071
  3936  001A16  EF0F  F00D         	goto	u2070
  3937  001A1A  EF11  F00D         
  3938                           u2071:
  3939  001A1E                     	goto	l2064
  3940  001A1E  EFFA  F00C         u2070:
  3941  001A22                     	goto	l888
  3942  001A22  EF13  F00D         	
  3943                           l887:
  3944  001A26                     	
  3945                           l888:
  3946  001A26                     	line	37
  3947                           	
  3948                           	btfsc	((c:___xxtofl@exp)),c,(0)&7
  3949  001A26  B016               	goto	u2081
  3950  001A28  EF18  F00D         	goto	u2080
  3951  001A2C  EF1A  F00D         u2081:
  3952  001A30                     	goto	l2072
  3953  001A30  EF1D  F00D         u2080:
  3954  001A34                     	line	38
  3955                           	
  3956                           l2070:
  3957  001A34                     	bcf	(0+(23/8)+(c:___xxtofl@arg)),c,(23)&7
  3958  001A34  9E19               	goto	l2072
  3959  001A36  EF1D  F00D         	
  3960                           l889:
  3961  001A3A                     	line	39
  3962                           	
  3963                           l2072:
  3964  001A3A                     	bcf status,0
  3965  001A3A  90D8               	rrcf	((c:___xxtofl@exp)),c
  3966  001A3C  3216               
  3967                           	line	40
  3968                           	
  3969                           l2074:
  3970  001A3E                     	movff	(c:___xxtofl@exp),??___xxtofl+0+0
  3971  001A3E  C016  F011         	clrf	(??___xxtofl+0+0+1)&0ffh,c
  3972  001A42  6A12               	clrf	(??___xxtofl+0+0+2)&0ffh,c
  3973  001A44  6A13               	clrf	(??___xxtofl+0+0+3)&0ffh,c
  3974  001A46  6A14               	movff	??___xxtofl+0+0,??___xxtofl+0+3
  3975  001A48  C011  F014         	clrf	(??___xxtofl+0+2),c
  3976  001A4C  6A13               	clrf	(??___xxtofl+0+1),c
  3977  001A4E  6A12               	clrf	(??___xxtofl+0+0),c
  3978  001A50  6A11               	movf	(??___xxtofl+0+0),c,w
  3979  001A52  5011               	iorwf	((c:___xxtofl@arg)),c
  3980  001A54  1217               	movf	(??___xxtofl+0+1),c,w
  3981  001A56  5012               	iorwf	((c:___xxtofl@arg+1)),c
  3982  001A58  1218               	movf	(??___xxtofl+0+2),c,w
  3983  001A5A  5013               	iorwf	((c:___xxtofl@arg+2)),c
  3984  001A5C  1219               	movf	(??___xxtofl+0+3),c,w
  3985  001A5E  5014               	iorwf	((c:___xxtofl@arg+3)),c
  3986  001A60  121A               
  3987                           	line	41
  3988                           	
  3989                           l2076:
  3990  001A62                     	movf	((c:___xxtofl@sign)),c,w
  3991  001A62  5015               	btfsc	status,2
  3992  001A64  B4D8               	goto	u2091
  3993  001A66  EF37  F00D         	goto	u2090
  3994  001A6A  EF39  F00D         u2091:
  3995  001A6E                     	goto	l2082
  3996  001A6E  EF43  F00D         u2090:
  3997  001A72                     	
  3998                           l2078:
  3999  001A72                     	btfsc	((c:___xxtofl@val+3)),c,7
  4000  001A72  BE10               	goto	u2100
  4001  001A74  EF40  F00D         	goto	u2101
  4002  001A78  EF3E  F00D         
  4003                           u2101:
  4004  001A7C                     	goto	l2082
  4005  001A7C  EF43  F00D         u2100:
  4006  001A80                     	line	42
  4007                           	
  4008                           l2080:
  4009  001A80                     	bsf	(0+(31/8)+(c:___xxtofl@arg)),c,(31)&7
  4010  001A80  8E1A               	goto	l2082
  4011  001A82  EF43  F00D         	
  4012                           l890:
  4013  001A86                     	line	43
  4014                           	
  4015                           l2082:
  4016  001A86                     	movff	(c:___xxtofl@arg),(c:?___xxtofl)
  4017  001A86  C017  F00D         	movff	(c:___xxtofl@arg+1),(c:?___xxtofl+1)
  4018  001A8A  C018  F00E         	movff	(c:___xxtofl@arg+2),(c:?___xxtofl+2)
  4019  001A8E  C019  F00F         	movff	(c:___xxtofl@arg+3),(c:?___xxtofl+3)
  4020  001A92  C01A  F010         	goto	l877
  4021  001A96  EF4D  F00D         	
  4022                           l2084:
  4023  001A9A                     	line	44
  4024                           	
  4025                           l877:
  4026  001A9A                     	return	;funcret
  4027  001A9A  0012               	opt stack 0
  4028                           GLOBAL	__end_of___xxtofl
  4029                           	__end_of___xxtofl:
  4030  001A9C                     	signat	___xxtofl,8316
  4031                           	global	___lmul
  4032                           
  4033 ;; *************** function ___lmul *****************
  4034 ;; Defined at:
  4035 ;;		line 15 in file "C:\Program Files (x86)\Microchip\xc8\v2.00\pic\sources\c99\common\Umul32.c"
  4036 ;; Parameters:    Size  Location     Type
  4037 ;;  multiplier      4    0[COMRAM] unsigned long 
  4038 ;;  multiplicand    4    4[COMRAM] unsigned long 
  4039 ;; Auto vars:     Size  Location     Type
  4040 ;;  product         4    8[COMRAM] unsigned long 
  4041 ;; Return value:  Size  Location     Type
  4042 ;;                  4    0[COMRAM] unsigned long 
  4043 ;; Registers used:
  4044 ;;		wreg, status,2, status,0
  4045 ;; Tracked objects:
  4046 ;;		On entry : 0/0
  4047 ;;		On exit  : 0/0
  4048 ;;		Unchanged: 0/0
  4049 ;; Data sizes:     COMRAM   BANK0   BANK1   BANK2   BANK3   BANK4   BANK5   BANK6   BANK7
  4050 ;;      Params:         8       0       0       0       0       0       0       0       0
  4051 ;;      Locals:         4       0       0       0       0       0       0       0       0
  4052 ;;      Temps:          0       0       0       0       0       0       0       0       0
  4053 ;;      Totals:        12       0       0       0       0       0       0       0       0
  4054 ;;Total ram usage:       12 bytes
  4055 ;; Hardware stack levels used:    1
  4056 ;; Hardware stack levels required when called:    2
  4057 ;; This function calls:
  4058 ;;		Nothing
  4059 ;; This function is called by:
  4060 ;;		_getTimeUS
  4061 ;; This function uses a non-reentrant model
  4062 ;;
  4063                           psect	text4,class=CODE,space=0,reloc=2,group=1
  4064                           	file	"C:\Program Files (x86)\Microchip\xc8\v2.00\pic\sources\c99\common\Umul32.c"
  4065                           	line	15
  4066                           global __ptext4
  4067                           __ptext4:
  4068  0021F4                     psect	text4
  4069                           	file	"C:\Program Files (x86)\Microchip\xc8\v2.00\pic\sources\c99\common\Umul32.c"
  4070                           	line	15
  4071                           	global	__size_of___lmul
  4072                           	__size_of___lmul	equ	__end_of___lmul-___lmul
  4073  0000                     	
  4074                           ___lmul:
  4075  0021F4                     ;incstack = 0
  4076                           	opt	stack 27
  4077                           	line	119
  4078                           	
  4079                           l2030:
  4080  0021F4                     	movlw	low(0)
  4081  0021F4  0E00               	movwf	((c:___lmul@product)),c
  4082  0021F6  6E09               	movlw	high(0)
  4083  0021F8  0E00               	movwf	((c:___lmul@product+1)),c
  4084  0021FA  6E0A               	movlw	low highword(0)
  4085  0021FC  0E00               	movwf	((c:___lmul@product+2)),c
  4086  0021FE  6E0B               	movlw	high highword(0)
  4087  002200  0E00               	movwf	((c:___lmul@product+3)),c
  4088  002202  6E0C               	goto	l2032
  4089  002204  EF04  F011         	line	120
  4090                           	
  4091                           l228:
  4092  002208                     	line	121
  4093                           	
  4094                           l2032:
  4095  002208                     	
  4096                           	btfss	((c:___lmul@multiplier)),c,(0)&7
  4097  002208  A001               	goto	u1991
  4098  00220A  EF09  F011         	goto	u1990
  4099  00220E  EF0B  F011         u1991:
  4100  002212                     	goto	l2036
  4101  002212  EF15  F011         u1990:
  4102  002216                     	line	122
  4103                           	
  4104                           l2034:
  4105  002216                     	movf	((c:___lmul@multiplicand)),c,w
  4106  002216  5005               	addwf	((c:___lmul@product)),c
  4107  002218  2609               	movf	((c:___lmul@multiplicand+1)),c,w
  4108  00221A  5006               	addwfc	((c:___lmul@product+1)),c
  4109  00221C  220A               	movf	((c:___lmul@multiplicand+2)),c,w
  4110  00221E  5007               	addwfc	((c:___lmul@product+2)),c
  4111  002220  220B               	movf	((c:___lmul@multiplicand+3)),c,w
  4112  002222  5008               	addwfc	((c:___lmul@product+3)),c
  4113  002224  220C               	goto	l2036
  4114  002226  EF15  F011         	
  4115                           l229:
  4116  00222A                     	line	123
  4117                           	
  4118                           l2036:
  4119  00222A                     	bcf	status,0
  4120  00222A  90D8               	rlcf	((c:___lmul@multiplicand)),c
  4121  00222C  3605               	rlcf	((c:___lmul@multiplicand+1)),c
  4122  00222E  3606               	rlcf	((c:___lmul@multiplicand+2)),c
  4123  002230  3607               	rlcf	((c:___lmul@multiplicand+3)),c
  4124  002232  3608               	line	124
  4125                           	
  4126                           l2038:
  4127  002234                     	bcf	status,0
  4128  002234  90D8               	rrcf	((c:___lmul@multiplier+3)),c
  4129  002236  3204               	rrcf	((c:___lmul@multiplier+2)),c
  4130  002238  3203               	rrcf	((c:___lmul@multiplier+1)),c
  4131  00223A  3202               	rrcf	((c:___lmul@multiplier)),c
  4132  00223C  3201               	line	125
  4133                           	movf	((c:___lmul@multiplier)),c,w
  4134  00223E  5001               iorwf	((c:___lmul@multiplier+1)),c,w
  4135  002240  1002               iorwf	((c:___lmul@multiplier+2)),c,w
  4136  002242  1003               iorwf	((c:___lmul@multiplier+3)),c,w
  4137  002244  1004               	btfss	status,2
  4138  002246  A4D8               	goto	u2001
  4139  002248  EF28  F011         	goto	u2000
  4140  00224C  EF2A  F011         
  4141                           u2001:
  4142  002250                     	goto	l2032
  4143  002250  EF04  F011         u2000:
  4144  002254                     	
  4145                           l230:
  4146  002254                     	line	128
  4147                           	movff	(c:___lmul@product),(c:?___lmul)
  4148  002254  C009  F001         	movff	(c:___lmul@product+1),(c:?___lmul+1)
  4149  002258  C00A  F002         	movff	(c:___lmul@product+2),(c:?___lmul+2)
  4150  00225C  C00B  F003         	movff	(c:___lmul@product+3),(c:?___lmul+3)
  4151  002260  C00C  F004         	line	129
  4152                           	
  4153                           l231:
  4154  002264                     	return	;funcret
  4155  002264  0012               	opt stack 0
  4156                           GLOBAL	__end_of___lmul
  4157                           	__end_of___lmul:
  4158  002266                     	signat	___lmul,8316
  4159                           	global	_configPIC
  4160                           
  4161 ;; *************** function _configPIC *****************
  4162 ;; Defined at:
  4163 ;;		line 3 in file "config.c"
  4164 ;; Parameters:    Size  Location     Type
  4165 ;;		None
  4166 ;; Auto vars:     Size  Location     Type
  4167 ;;		None
  4168 ;; Return value:  Size  Location     Type
  4169 ;;                  1    wreg      void 
  4170 ;; Registers used:
  4171 ;;		wreg, status,2
  4172 ;; Tracked objects:
  4173 ;;		On entry : 0/0
  4174 ;;		On exit  : 0/0
  4175 ;;		Unchanged: 0/0
  4176 ;; Data sizes:     COMRAM   BANK0   BANK1   BANK2   BANK3   BANK4   BANK5   BANK6   BANK7
  4177 ;;      Params:         0       0       0       0       0       0       0       0       0
  4178 ;;      Locals:         0       0       0       0       0       0       0       0       0
  4179 ;;      Temps:          0       0       0       0       0       0       0       0       0
  4180 ;;      Totals:         0       0       0       0       0       0       0       0       0
  4181 ;;Total ram usage:        0 bytes
  4182 ;; Hardware stack levels used:    1
  4183 ;; Hardware stack levels required when called:    2
  4184 ;; This function calls:
  4185 ;;		Nothing
  4186 ;; This function is called by:
  4187 ;;		_main
  4188 ;; This function uses a non-reentrant model
  4189 ;;
  4190                           psect	text5,class=CODE,space=0,reloc=2,group=0
  4191                           	file	"config.c"
  4192                           	line	3
  4193                           global __ptext5
  4194                           __ptext5:
  4195  002300                     psect	text5
  4196                           	file	"config.c"
  4197                           	line	3
  4198                           	global	__size_of_configPIC
  4199                           	__size_of_configPIC	equ	__end_of_configPIC-_configPIC
  4200  0000                     	
  4201                           _configPIC:
  4202  002300                     ;incstack = 0
  4203                           	opt	stack 28
  4204                           	line	5
  4205                           	
  4206                           l2086:
  4207  002300                     ;config.c: 5:     TRISA = 0;
  4208                           	movlw	low(0)
  4209  002300  0E00               	movwf	((c:3986)),c	;volatile
  4210  002302  6E92               	line	6
  4211                           ;config.c: 6:     TRISB = 0;
  4212                           	movlw	low(0)
  4213  002304  0E00               	movwf	((c:3987)),c	;volatile
  4214  002306  6E93               	line	7
  4215                           ;config.c: 7:     TRISC = 0;
  4216                           	movlw	low(0)
  4217  002308  0E00               	movwf	((c:3988)),c	;volatile
  4218  00230A  6E94               	line	8
  4219                           ;config.c: 8:     TRISD = 0;
  4220                           	movlw	low(0)
  4221  00230C  0E00               	movwf	((c:3989)),c	;volatile
  4222  00230E  6E95               	line	9
  4223                           ;config.c: 9:     TRISE = 0;
  4224                           	movlw	low(0)
  4225  002310  0E00               	movwf	((c:3990)),c	;volatile
  4226  002312  6E96               	line	11
  4227                           	
  4228                           l2088:
  4229  002314                     ;config.c: 11:     TRISAbits.RA0 = 0;
  4230                           	bcf	((c:3986)),c,0	;volatile
  4231  002314  9092               	line	13
  4232                           	
  4233                           l2090:
  4234  002316                     ;config.c: 13:     ADCON1=0xFF;
  4235                           	setf	((c:4033)),c	;volatile
  4236  002316  68C1               	line	15
  4237                           	
  4238                           l2092:
  4239  002318                     ;config.c: 15:     GIE = 1;
  4240                           	bsf	c:(32663/8),(32663)&7	;volatile
  4241  002318  8EF2               	line	16
  4242                           	
  4243                           l2094:
  4244  00231A                     ;config.c: 16:     TMR1IE=1;
  4245                           	bsf	c:(31976/8),(31976)&7	;volatile
  4246  00231A  809D               	line	17
  4247                           	
  4248                           l2096:
  4249  00231C                     ;config.c: 17:     PEIE=1;
  4250                           	bsf	c:(32662/8),(32662)&7	;volatile
  4251  00231C  8CF2               	line	18
  4252                           	
  4253                           l2098:
  4254  00231E                     ;config.c: 18:     TMR1IP=1;
  4255                           	bsf	c:(31992/8),(31992)&7	;volatile
  4256  00231E  809F               	line	21
  4257                           	
  4258                           l2100:
  4259  002320                     ;config.c: 21:     TMR0IE=0;
  4260                           	bcf	c:(32661/8),(32661)&7	;volatile
  4261  002320  9AF2               	line	63
  4262                           	
  4263                           l27:
  4264  002322                     	return	;funcret
  4265  002322  0012               	opt stack 0
  4266                           GLOBAL	__end_of_configPIC
  4267                           	__end_of_configPIC:
  4268  002324                     	signat	_configPIC,89
  4269                           	global	_compareSignals
  4270                           
  4271 ;; *************** function _compareSignals *****************
  4272 ;; Defined at:
  4273 ;;		line 104 in file "main.c"
  4274 ;; Parameters:    Size  Location     Type
  4275 ;;		None
  4276 ;; Auto vars:     Size  Location     Type
  4277 ;;  ii              2   68[COMRAM] int 
  4278 ;;  values         10   54[COMRAM] int [5]
  4279 ;;  numMenor        2   66[COMRAM] unsigned int 
  4280 ;;  signal          2   64[COMRAM] int 
  4281 ;;  cd              2   52[COMRAM] int 
  4282 ;;  cu              2   50[COMRAM] int 
  4283 ;;  vd              2   48[COMRAM] int 
  4284 ;;  vu              2   46[COMRAM] int 
  4285 ;;  to              2   44[COMRAM] int 
  4286 ;; Return value:  Size  Location     Type
  4287 ;;                  2   40[COMRAM] int 
  4288 ;; Registers used:
  4289 ;;		wreg, fsr1l, fsr1h, fsr2l, fsr2h, status,2, status,0, cstack
  4290 ;; Tracked objects:
  4291 ;;		On entry : 0/0
  4292 ;;		On exit  : 0/0
  4293 ;;		Unchanged: 0/0
  4294 ;; Data sizes:     COMRAM   BANK0   BANK1   BANK2   BANK3   BANK4   BANK5   BANK6   BANK7
  4295 ;;      Params:         2       0       0       0       0       0       0       0       0
  4296 ;;      Locals:        26       0       0       0       0       0       0       0       0
  4297 ;;      Temps:          2       0       0       0       0       0       0       0       0
  4298 ;;      Totals:        30       0       0       0       0       0       0       0       0
  4299 ;;Total ram usage:       30 bytes
  4300 ;; Hardware stack levels used:    1
  4301 ;; Hardware stack levels required when called:    4
  4302 ;; This function calls:
  4303 ;;		_compareChannelDown
  4304 ;;		_compareChannelUp
  4305 ;;		_compareTurnOn
  4306 ;;		_compareVolumeDown
  4307 ;;		_compareVolumeUp
  4308 ;; This function is called by:
  4309 ;;		_main
  4310 ;; This function uses a non-reentrant model
  4311 ;;
  4312                           psect	text6,class=CODE,space=0,reloc=2,group=0
  4313                           	file	"main.c"
  4314                           	line	104
  4315                           global __ptext6
  4316                           __ptext6:
  4317  001C04                     psect	text6
  4318                           	file	"main.c"
  4319                           	line	104
  4320                           	global	__size_of_compareSignals
  4321                           	__size_of_compareSignals	equ	__end_of_compareSignals-_compareSignals
  4322  0000                     	
  4323                           _compareSignals:
  4324  001C04                     ;incstack = 0
  4325                           	opt	stack 26
  4326                           	line	105
  4327                           	
  4328                           l2110:
  4329  001C04                     ;main.c: 105:     int to=compareTurnOn();
  4330                           	call	_compareTurnOn	;wreg free
  4331  001C04  ECE2  F008         	movff	0+?_compareTurnOn,(c:compareSignals@to)
  4332  001C08  C023  F02D         	movff	1+?_compareTurnOn,(c:compareSignals@to+1)
  4333  001C0C  C024  F02E         	line	106
  4334                           ;main.c: 106:     int vu=compareVolumeUp();
  4335                           	call	_compareVolumeUp	;wreg free
  4336  001C10  EC8E  F006         	movff	0+?_compareVolumeUp,(c:compareSignals@vu)
  4337  001C14  C023  F02F         	movff	1+?_compareVolumeUp,(c:compareSignals@vu+1)
  4338  001C18  C024  F030         	line	107
  4339                           ;main.c: 107:     int vd=compareVolumeDown();
  4340                           	call	_compareVolumeDown	;wreg free
  4341  001C1C  ECB8  F007         	movff	0+?_compareVolumeDown,(c:compareSignals@vd)
  4342  001C20  C023  F031         	movff	1+?_compareVolumeDown,(c:compareSignals@vd+1)
  4343  001C24  C024  F032         	line	108
  4344                           ;main.c: 108:     int cu=compareChannelUp();
  4345                           	call	_compareChannelUp	;wreg free
  4346  001C28  EC0C  F00A         	movff	0+?_compareChannelUp,(c:compareSignals@cu)
  4347  001C2C  C023  F033         	movff	1+?_compareChannelUp,(c:compareSignals@cu+1)
  4348  001C30  C024  F034         	line	109
  4349                           ;main.c: 109:     int cd=compareChannelDown();
  4350                           	call	_compareChannelDown	;wreg free
  4351  001C34  EC36  F00B         	movff	0+?_compareChannelDown,(c:compareSignals@cd)
  4352  001C38  C023  F035         	movff	1+?_compareChannelDown,(c:compareSignals@cd+1)
  4353  001C3C  C024  F036         	line	110
  4354                           	
  4355                           l2112:
  4356  001C40                     ;main.c: 110:     int values[5]={to,vu,vd,cu,cd};
  4357                           	lfsr	2,(compareSignals@F3660)
  4358  001C40  EE20  F049         	lfsr	1,(compareSignals@values)
  4359  001C44  EE10  F037         	movlw	10-1
  4360  001C48  0E09               u2111:
  4361  001C4A                     	movff	plusw2,plusw1
  4362  001C4A  CFDB FFE3          	decf	wreg
  4363  001C4E  06E8               	bc	u2111
  4364  001C50  E2FC               
  4365                           	
  4366                           l2114:
  4367  001C52                     	movff	(c:compareSignals@to),(c:compareSignals@values)
  4368  001C52  C02D  F037         	movff	(c:compareSignals@to+1),(c:compareSignals@values+1)
  4369  001C56  C02E  F038         	
  4370                           l2116:
  4371  001C5A                     	movff	(c:compareSignals@vu),0+((c:compareSignals@values)+02h)
  4372  001C5A  C02F  F039         	movff	(c:compareSignals@vu+1),1+((c:compareSignals@values)+02h)
  4373  001C5E  C030  F03A         	
  4374                           l2118:
  4375  001C62                     	movff	(c:compareSignals@vd),0+((c:compareSignals@values)+04h)
  4376  001C62  C031  F03B         	movff	(c:compareSignals@vd+1),1+((c:compareSignals@values)+04h)
  4377  001C66  C032  F03C         	
  4378                           l2120:
  4379  001C6A                     	movff	(c:compareSignals@cu),0+((c:compareSignals@values)+06h)
  4380  001C6A  C033  F03D         	movff	(c:compareSignals@cu+1),1+((c:compareSignals@values)+06h)
  4381  001C6E  C034  F03E         	
  4382                           l2122:
  4383  001C72                     	movff	(c:compareSignals@cd),0+((c:compareSignals@values)+08h)
  4384  001C72  C035  F03F         	movff	(c:compareSignals@cd+1),1+((c:compareSignals@values)+08h)
  4385  001C76  C036  F040         	line	111
  4386                           	
  4387                           l2124:
  4388  001C7A                     ;main.c: 111:     int signal=0;
  4389                           	movlw	high(0)
  4390  001C7A  0E00               	movwf	((c:compareSignals@signal+1)),c
  4391  001C7C  6E42               	movlw	low(0)
  4392  001C7E  0E00               	movwf	((c:compareSignals@signal)),c
  4393  001C80  6E41               	line	112
  4394                           	
  4395                           l2126:
  4396  001C82                     ;main.c: 112:     unsigned int numMenor=1000000;
  4397                           	movlw	high(04240h)
  4398  001C82  0E42               	movwf	((c:compareSignals@numMenor+1)),c
  4399  001C84  6E44               	movlw	low(04240h)
  4400  001C86  0E40               	movwf	((c:compareSignals@numMenor)),c
  4401  001C88  6E43               	line	114
  4402                           	
  4403                           l2128:
  4404  001C8A                     ;main.c: 114:     for(int ii=0;ii<5;ii++){
  4405                           	movlw	high(0)
  4406  001C8A  0E00               	movwf	((c:compareSignals@ii+1)),c
  4407  001C8C  6E46               	movlw	low(0)
  4408  001C8E  0E00               	movwf	((c:compareSignals@ii)),c
  4409  001C90  6E45               	
  4410                           l2130:
  4411  001C92                     	btfsc	((c:compareSignals@ii+1)),c,7
  4412  001C92  BE46               	goto	u2121
  4413  001C94  EF55  F00E         	movf	((c:compareSignals@ii+1)),c,w
  4414  001C98  5046               	bnz	u2120
  4415  001C9A  E109               	movlw	5
  4416  001C9C  0E05               	subwf	 ((c:compareSignals@ii)),c,w
  4417  001C9E  5C45               	btfss	status,0
  4418  001CA0  A0D8               	goto	u2121
  4419  001CA2  EF55  F00E         	goto	u2120
  4420  001CA6  EF57  F00E         
  4421                           u2121:
  4422  001CAA                     	goto	l2134
  4423  001CAA  EF5B  F00E         u2120:
  4424  001CAE                     	goto	l2144
  4425  001CAE  EF96  F00E         	
  4426                           l2132:
  4427  001CB2                     	goto	l2144
  4428  001CB2  EF96  F00E         	
  4429                           l113:
  4430  001CB6                     	line	115
  4431                           	
  4432                           l2134:
  4433  001CB6                     ;main.c: 115:         if(values[ii]<numMenor){
  4434                           	bcf	status,0
  4435  001CB6  90D8               	rlcf	((c:compareSignals@ii)),c,w
  4436  001CB8  3445               	movwf	fsr2l
  4437  001CBA  6ED9               	rlcf	((c:compareSignals@ii+1)),c,w
  4438  001CBC  3446               	movwf	fsr2h
  4439  001CBE  6EDA               	movlw	low(compareSignals@values)
  4440  001CC0  0E37               	addwf	fsr2l
  4441  001CC2  26D9               	movlw	high(compareSignals@values)
  4442  001CC4  0E00               	addwfc	fsr2h
  4443  001CC6  22DA               		movf	((c:compareSignals@numMenor)),c,w
  4444  001CC8  5043               	subwf	postinc2,w
  4445  001CCA  5CDE               	movf	((c:compareSignals@numMenor+1)),c,w
  4446  001CCC  5044               	subwfb	postinc2,w
  4447  001CCE  58DE               	btfsc	status,0
  4448  001CD0  B0D8               	goto	u2131
  4449  001CD2  EF6D  F00E         	goto	u2130
  4450  001CD6  EF6F  F00E         
  4451                           u2131:
  4452  001CDA                     	goto	l2140
  4453  001CDA  EF84  F00E         u2130:
  4454  001CDE                     	line	116
  4455                           	
  4456                           l2136:
  4457  001CDE                     ;main.c: 116:             signal=ii+1;
  4458                           	movlw	low(01h)
  4459  001CDE  0E01               	addwf	((c:compareSignals@ii)),c,w
  4460  001CE0  2445               	movwf	((c:compareSignals@signal)),c
  4461  001CE2  6E41               	movlw	high(01h)
  4462  001CE4  0E00               	addwfc	((c:compareSignals@ii+1)),c,w
  4463  001CE6  2046               	movwf	1+((c:compareSignals@signal)),c
  4464  001CE8  6E42               	line	117
  4465                           	
  4466                           l2138:
  4467  001CEA                     ;main.c: 117:             numMenor=values[ii];
  4468                           	bcf	status,0
  4469  001CEA  90D8               	rlcf	((c:compareSignals@ii)),c,w
  4470  001CEC  3445               	movwf	fsr2l
  4471  001CEE  6ED9               	rlcf	((c:compareSignals@ii+1)),c,w
  4472  001CF0  3446               	movwf	fsr2h
  4473  001CF2  6EDA               	movlw	low(compareSignals@values)
  4474  001CF4  0E37               	addwf	fsr2l
  4475  001CF6  26D9               	movlw	high(compareSignals@values)
  4476  001CF8  0E00               	addwfc	fsr2h
  4477  001CFA  22DA               	movff	postinc2,(c:compareSignals@numMenor)
  4478  001CFC  CFDE F043          	movff	postdec2,(c:compareSignals@numMenor+1)
  4479  001D00  CFDD F044          	goto	l2140
  4480  001D04  EF84  F00E         	line	118
  4481                           ;main.c: 118:         }
  4482                           	
  4483                           l115:
  4484  001D08                     	line	119
  4485                           	
  4486                           l2140:
  4487  001D08                     ;main.c: 119:     }
  4488                           	infsnz	((c:compareSignals@ii)),c
  4489  001D08  4A45               	incf	((c:compareSignals@ii+1)),c
  4490  001D0A  2A46               	
  4491                           l2142:
  4492  001D0C                     	btfsc	((c:compareSignals@ii+1)),c,7
  4493  001D0C  BE46               	goto	u2141
  4494  001D0E  EF92  F00E         	movf	((c:compareSignals@ii+1)),c,w
  4495  001D12  5046               	bnz	u2140
  4496  001D14  E109               	movlw	5
  4497  001D16  0E05               	subwf	 ((c:compareSignals@ii)),c,w
  4498  001D18  5C45               	btfss	status,0
  4499  001D1A  A0D8               	goto	u2141
  4500  001D1C  EF92  F00E         	goto	u2140
  4501  001D20  EF94  F00E         
  4502                           u2141:
  4503  001D24                     	goto	l2134
  4504  001D24  EF5B  F00E         u2140:
  4505  001D28                     	goto	l2144
  4506  001D28  EF96  F00E         	
  4507                           l114:
  4508  001D2C                     	line	121
  4509                           	
  4510                           l2144:
  4511  001D2C                     ;main.c: 121:     if (numMenor>200){
  4512                           		movf	((c:compareSignals@numMenor+1)),c,w
  4513  001D2C  5044               	bnz	u2150
  4514  001D2E  E109               	movlw	201
  4515  001D30  0EC9               	subwf	 ((c:compareSignals@numMenor)),c,w
  4516  001D32  5C43               	btfss	status,0
  4517  001D34  A0D8               	goto	u2151
  4518  001D36  EF9F  F00E         	goto	u2150
  4519  001D3A  EFA1  F00E         
  4520                           u2151:
  4521  001D3E                     	goto	l2148
  4522  001D3E  EFA7  F00E         u2150:
  4523  001D42                     	line	122
  4524                           	
  4525                           l2146:
  4526  001D42                     ;main.c: 122:         signal=0;
  4527                           	movlw	high(0)
  4528  001D42  0E00               	movwf	((c:compareSignals@signal+1)),c
  4529  001D44  6E42               	movlw	low(0)
  4530  001D46  0E00               	movwf	((c:compareSignals@signal)),c
  4531  001D48  6E41               	goto	l2148
  4532  001D4A  EFA7  F00E         	line	123
  4533                           ;main.c: 123:     }
  4534                           	
  4535                           l116:
  4536  001D4E                     	line	125
  4537                           	
  4538                           l2148:
  4539  001D4E                     ;main.c: 125:     return signal;
  4540                           	movff	(c:compareSignals@signal),(c:?_compareSignals)
  4541  001D4E  C041  F029         	movff	(c:compareSignals@signal+1),(c:?_compareSignals+1)
  4542  001D52  C042  F02A         	goto	l117
  4543  001D56  EFAD  F00E         	
  4544                           l2150:
  4545  001D5A                     	line	126
  4546                           	
  4547                           l117:
  4548  001D5A                     	return	;funcret
  4549  001D5A  0012               	opt stack 0
  4550                           GLOBAL	__end_of_compareSignals
  4551                           	__end_of_compareSignals:
  4552  001D5C                     	signat	_compareSignals,90
  4553                           	global	_compareVolumeUp
  4554                           
  4555 ;; *************** function _compareVolumeUp *****************
  4556 ;; Defined at:
  4557 ;;		line 145 in file "main.c"
  4558 ;; Parameters:    Size  Location     Type
  4559 ;;		None
  4560 ;; Auto vars:     Size  Location     Type
  4561 ;;  i               2   66[BANK0 ] int 
  4562 ;;  sum            64    0[BANK0 ] int [32]
  4563 ;;  acum            2   64[BANK0 ] int 
  4564 ;; Return value:  Size  Location     Type
  4565 ;;                  2   34[COMRAM] int 
  4566 ;; Registers used:
  4567 ;;		wreg, fsr2l, fsr2h, status,2, status,0, cstack
  4568 ;; Tracked objects:
  4569 ;;		On entry : 0/0
  4570 ;;		On exit  : 0/0
  4571 ;;		Unchanged: 0/0
  4572 ;; Data sizes:     COMRAM   BANK0   BANK1   BANK2   BANK3   BANK4   BANK5   BANK6   BANK7
  4573 ;;      Params:         2       0       0       0       0       0       0       0       0
  4574 ;;      Locals:         0      68       0       0       0       0       0       0       0
  4575 ;;      Temps:          4       0       0       0       0       0       0       0       0
  4576 ;;      Totals:         6      68       0       0       0       0       0       0       0
  4577 ;;Total ram usage:       74 bytes
  4578 ;; Hardware stack levels used:    1
  4579 ;; Hardware stack levels required when called:    3
  4580 ;; This function calls:
  4581 ;;		___fladd
  4582 ;;		___flge
  4583 ;;		___flneg
  4584 ;;		___fltol
  4585 ;; This function is called by:
  4586 ;;		_compareSignals
  4587 ;; This function uses a non-reentrant model
  4588 ;;
  4589                           psect	text7,class=CODE,space=0,reloc=2,group=0
  4590                           	line	145
  4591                           global __ptext7
  4592                           __ptext7:
  4593  000D1C                     psect	text7
  4594                           	file	"main.c"
  4595                           	line	145
  4596                           	global	__size_of_compareVolumeUp
  4597                           	__size_of_compareVolumeUp	equ	__end_of_compareVolumeUp-_compareVolumeUp
  4598  0000                     	
  4599                           _compareVolumeUp:
  4600  000D1C                     ;incstack = 0
  4601                           	opt	stack 26
  4602                           	line	146
  4603                           	
  4604                           l1958:
  4605  000D1C                     ;main.c: 146:     int acum=0;
  4606                           	movlw	high(0)
  4607  000D1C  0E00               	movlb	0	; () banked
  4608  000D1E  0100               	movwf	((compareVolumeUp@acum+1))&0ffh
  4609  000D20  6FA1               	movlw	low(0)
  4610  000D22  0E00               	movwf	((compareVolumeUp@acum))&0ffh
  4611  000D24  6FA0               	line	149
  4612                           ;main.c: 147:     int sum[32];;main.c: 149:     for (int i=0;i<32;i++){
  4613                           	movlw	high(0)
  4614  000D26  0E00               	movwf	((compareVolumeUp@i+1))&0ffh
  4615  000D28  6FA3               	movlw	low(0)
  4616  000D2A  0E00               	movwf	((compareVolumeUp@i))&0ffh
  4617  000D2C  6FA2               	
  4618                           l1960:; BSR set to: 0
  4619  000D2E                     
  4620                           	btfsc	((compareVolumeUp@i+1))&0ffh,7
  4621  000D2E  BFA3               	goto	u1871
  4622  000D30  EFA3  F006         	movf	((compareVolumeUp@i+1))&0ffh,w
  4623  000D34  51A3               	bnz	u1870
  4624  000D36  E109               	movlw	32
  4625  000D38  0E20               	subwf	 ((compareVolumeUp@i))&0ffh,w
  4626  000D3A  5DA2               	btfss	status,0
  4627  000D3C  A0D8               	goto	u1871
  4628  000D3E  EFA3  F006         	goto	u1870
  4629  000D42  EFA5  F006         
  4630                           u1871:
  4631  000D46                     	goto	l1964
  4632  000D46  EFA9  F006         u1870:
  4633  000D4A                     	goto	l128
  4634  000D4A  EFB3  F007         	
  4635                           l1962:; BSR set to: 0
  4636  000D4E                     
  4637                           	goto	l128
  4638  000D4E  EFB3  F007         	
  4639                           l127:; BSR set to: 0
  4640  000D52                     
  4641                           	line	150
  4642                           	
  4643                           l1964:; BSR set to: 0
  4644  000D52                     
  4645                           ;main.c: 150:         if (timerValue[i]>=volumeUpCode[i]){
  4646                           	movlw	low((_timerValue))
  4647  000D52  0E00               	movwf	(??_compareVolumeUp+0+0)&0ffh,c
  4648  000D54  6E25               	movlw	high((_timerValue))
  4649  000D56  0E01               	movwf	1+(??_compareVolumeUp+0+0)&0ffh,c
  4650  000D58  6E26               	bcf	status,0
  4651  000D5A  90D8               	rlcf	((compareVolumeUp@i))&0ffh,w
  4652  000D5C  35A2               	movwf	fsr2l
  4653  000D5E  6ED9               	rlcf	((compareVolumeUp@i+1))&0ffh,w
  4654  000D60  35A3               	movwf	fsr2h
  4655  000D62  6EDA               	bcf	status,0
  4656  000D64  90D8               	rlcf	fsr2l,f
  4657  000D66  36D9               	rlcf	fsr2h,f
  4658  000D68  36DA               	movf	(??_compareVolumeUp+0+0),c,w
  4659  000D6A  5025               	addwf	fsr2l
  4660  000D6C  26D9               	movf	(??_compareVolumeUp+0+1),c,w
  4661  000D6E  5026               	addwfc	fsr2h
  4662  000D70  22DA               
  4663                           	movff	postinc2,(c:___flge@ff1)
  4664  000D72  CFDE F001          	movff	postinc2,(c:___flge@ff1+1)
  4665  000D76  CFDE F002          	movff	postinc2,(c:___flge@ff1+2)
  4666  000D7A  CFDE F003          	movff	postinc2,(c:___flge@ff1+3)
  4667  000D7E  CFDE F004          	movlw	low((_volumeUpCode))
  4668  000D82  0E80               	movwf	(??_compareVolumeUp+2+0)&0ffh,c
  4669  000D84  6E27               	movlw	high((_volumeUpCode))
  4670  000D86  0E02               	movwf	1+(??_compareVolumeUp+2+0)&0ffh,c
  4671  000D88  6E28               	bcf	status,0
  4672  000D8A  90D8               	rlcf	((compareVolumeUp@i))&0ffh,w
  4673  000D8C  35A2               	movwf	fsr2l
  4674  000D8E  6ED9               	rlcf	((compareVolumeUp@i+1))&0ffh,w
  4675  000D90  35A3               	movwf	fsr2h
  4676  000D92  6EDA               	bcf	status,0
  4677  000D94  90D8               	rlcf	fsr2l,f
  4678  000D96  36D9               	rlcf	fsr2h,f
  4679  000D98  36DA               	movf	(??_compareVolumeUp+2+0),c,w
  4680  000D9A  5027               	addwf	fsr2l
  4681  000D9C  26D9               	movf	(??_compareVolumeUp+2+1),c,w
  4682  000D9E  5028               	addwfc	fsr2h
  4683  000DA0  22DA               
  4684                           	movff	postinc2,(c:___flge@ff2)
  4685  000DA2  CFDE F005          	movff	postinc2,(c:___flge@ff2+1)
  4686  000DA6  CFDE F006          	movff	postinc2,(c:___flge@ff2+2)
  4687  000DAA  CFDE F007          	movff	postinc2,(c:___flge@ff2+3)
  4688  000DAE  CFDE F008          	call	___flge	;wreg free
  4689  000DB2  EC4E  F00D         	btfss	status,0
  4690  000DB6  A0D8               	goto	u1881
  4691  000DB8  EFE0  F006         	goto	u1880
  4692  000DBC  EFE2  F006         u1881:
  4693  000DC0                     	goto	l1968
  4694  000DC0  EF39  F007         u1880:
  4695  000DC4                     	line	151
  4696                           	
  4697                           l1966:
  4698  000DC4                     ;main.c: 151:             sum[i]=timerValue[i]-volumeUpCode[i];
  4699                           	movlw	low((_timerValue))
  4700  000DC4  0E00               	movwf	(??_compareVolumeUp+0+0)&0ffh,c
  4701  000DC6  6E25               	movlw	high((_timerValue))
  4702  000DC8  0E01               	movwf	1+(??_compareVolumeUp+0+0)&0ffh,c
  4703  000DCA  6E26               	bcf	status,0
  4704  000DCC  90D8               	movlb	0	; () banked
  4705  000DCE  0100               	rlcf	((compareVolumeUp@i))&0ffh,w
  4706  000DD0  35A2               	movwf	fsr2l
  4707  000DD2  6ED9               	rlcf	((compareVolumeUp@i+1))&0ffh,w
  4708  000DD4  35A3               	movwf	fsr2h
  4709  000DD6  6EDA               	bcf	status,0
  4710  000DD8  90D8               	rlcf	fsr2l,f
  4711  000DDA  36D9               	rlcf	fsr2h,f
  4712  000DDC  36DA               	movf	(??_compareVolumeUp+0+0),c,w
  4713  000DDE  5025               	addwf	fsr2l
  4714  000DE0  26D9               	movf	(??_compareVolumeUp+0+1),c,w
  4715  000DE2  5026               	addwfc	fsr2h
  4716  000DE4  22DA               
  4717                           	movff	postinc2,(c:___fladd@a)
  4718  000DE6  CFDE F009          	movff	postinc2,(c:___fladd@a+1)
  4719  000DEA  CFDE F00A          	movff	postinc2,(c:___fladd@a+2)
  4720  000DEE  CFDE F00B          	movff	postinc2,(c:___fladd@a+3)
  4721  000DF2  CFDE F00C          	movlw	low((_volumeUpCode))
  4722  000DF6  0E80               	movwf	(??_compareVolumeUp+2+0)&0ffh,c
  4723  000DF8  6E27               	movlw	high((_volumeUpCode))
  4724  000DFA  0E02               	movwf	1+(??_compareVolumeUp+2+0)&0ffh,c
  4725  000DFC  6E28               	bcf	status,0
  4726  000DFE  90D8               	rlcf	((compareVolumeUp@i))&0ffh,w
  4727  000E00  35A2               	movwf	fsr2l
  4728  000E02  6ED9               	rlcf	((compareVolumeUp@i+1))&0ffh,w
  4729  000E04  35A3               	movwf	fsr2h
  4730  000E06  6EDA               	bcf	status,0
  4731  000E08  90D8               	rlcf	fsr2l,f
  4732  000E0A  36D9               	rlcf	fsr2h,f
  4733  000E0C  36DA               	movf	(??_compareVolumeUp+2+0),c,w
  4734  000E0E  5027               	addwf	fsr2l
  4735  000E10  26D9               	movf	(??_compareVolumeUp+2+1),c,w
  4736  000E12  5028               	addwfc	fsr2h
  4737  000E14  22DA               
  4738                           	movff	postinc2,(c:___flneg@f1)
  4739  000E16  CFDE F001          	movff	postinc2,(c:___flneg@f1+1)
  4740  000E1A  CFDE F002          	movff	postinc2,(c:___flneg@f1+2)
  4741  000E1E  CFDE F003          	movff	postinc2,(c:___flneg@f1+3)
  4742  000E22  CFDE F004          	call	___flneg	;wreg free
  4743  000E26  EC60  F011         	movff	0+?___flneg,(c:___fladd@b)
  4744  000E2A  C001  F005         	movff	1+?___flneg,(c:___fladd@b+1)
  4745  000E2E  C002  F006         	movff	2+?___flneg,(c:___fladd@b+2)
  4746  000E32  C003  F007         	movff	3+?___flneg,(c:___fladd@b+3)
  4747  000E36  C004  F008         	
  4748                           	call	___fladd	;wreg free
  4749  000E3A  ECCC  F003         	movff	0+?___fladd,(c:___fltol@f1)
  4750  000E3E  C005  F019         	movff	1+?___fladd,(c:___fltol@f1+1)
  4751  000E42  C006  F01A         	movff	2+?___fladd,(c:___fltol@f1+2)
  4752  000E46  C007  F01B         	movff	3+?___fladd,(c:___fltol@f1+3)
  4753  000E4A  C008  F01C         	
  4754                           	call	___fltol	;wreg free
  4755  000E4E  ECAE  F00E         	bcf	status,0
  4756  000E52  90D8               	movlb	0	; () banked
  4757  000E54  0100               	rlcf	((compareVolumeUp@i))&0ffh,w
  4758  000E56  35A2               	movwf	fsr2l
  4759  000E58  6ED9               	rlcf	((compareVolumeUp@i+1))&0ffh,w
  4760  000E5A  35A3               	movwf	fsr2h
  4761  000E5C  6EDA               	movlw	low(compareVolumeUp@sum)
  4762  000E5E  0E60               	addwf	fsr2l
  4763  000E60  26D9               	movlw	high(compareVolumeUp@sum)
  4764  000E62  0E00               	addwfc	fsr2h
  4765  000E64  22DA               	movff	0+?___fltol,postinc2
  4766  000E66  C019  FFDE         	movff	1+?___fltol,postdec2
  4767  000E6A  C01A  FFDD         
  4768                           	line	152
  4769                           ;main.c: 152:         }else{
  4770                           	goto	l1970
  4771  000E6E  EF90  F007         	
  4772                           l129:; BSR set to: 0
  4773  000E72                     
  4774                           	line	153
  4775                           	
  4776                           l1968:
  4777  000E72                     ;main.c: 153:             sum[i]=volumeUpCode[i]-timerValue[i];
  4778                           	movlw	low((_volumeUpCode))
  4779  000E72  0E80               	movwf	(??_compareVolumeUp+0+0)&0ffh,c
  4780  000E74  6E25               	movlw	high((_volumeUpCode))
  4781  000E76  0E02               	movwf	1+(??_compareVolumeUp+0+0)&0ffh,c
  4782  000E78  6E26               	bcf	status,0
  4783  000E7A  90D8               	movlb	0	; () banked
  4784  000E7C  0100               	rlcf	((compareVolumeUp@i))&0ffh,w
  4785  000E7E  35A2               	movwf	fsr2l
  4786  000E80  6ED9               	rlcf	((compareVolumeUp@i+1))&0ffh,w
  4787  000E82  35A3               	movwf	fsr2h
  4788  000E84  6EDA               	bcf	status,0
  4789  000E86  90D8               	rlcf	fsr2l,f
  4790  000E88  36D9               	rlcf	fsr2h,f
  4791  000E8A  36DA               	movf	(??_compareVolumeUp+0+0),c,w
  4792  000E8C  5025               	addwf	fsr2l
  4793  000E8E  26D9               	movf	(??_compareVolumeUp+0+1),c,w
  4794  000E90  5026               	addwfc	fsr2h
  4795  000E92  22DA               
  4796                           	movff	postinc2,(c:___fladd@a)
  4797  000E94  CFDE F009          	movff	postinc2,(c:___fladd@a+1)
  4798  000E98  CFDE F00A          	movff	postinc2,(c:___fladd@a+2)
  4799  000E9C  CFDE F00B          	movff	postinc2,(c:___fladd@a+3)
  4800  000EA0  CFDE F00C          	movlw	low((_timerValue))
  4801  000EA4  0E00               	movwf	(??_compareVolumeUp+2+0)&0ffh,c
  4802  000EA6  6E27               	movlw	high((_timerValue))
  4803  000EA8  0E01               	movwf	1+(??_compareVolumeUp+2+0)&0ffh,c
  4804  000EAA  6E28               	bcf	status,0
  4805  000EAC  90D8               	rlcf	((compareVolumeUp@i))&0ffh,w
  4806  000EAE  35A2               	movwf	fsr2l
  4807  000EB0  6ED9               	rlcf	((compareVolumeUp@i+1))&0ffh,w
  4808  000EB2  35A3               	movwf	fsr2h
  4809  000EB4  6EDA               	bcf	status,0
  4810  000EB6  90D8               	rlcf	fsr2l,f
  4811  000EB8  36D9               	rlcf	fsr2h,f
  4812  000EBA  36DA               	movf	(??_compareVolumeUp+2+0),c,w
  4813  000EBC  5027               	addwf	fsr2l
  4814  000EBE  26D9               	movf	(??_compareVolumeUp+2+1),c,w
  4815  000EC0  5028               	addwfc	fsr2h
  4816  000EC2  22DA               
  4817                           	movff	postinc2,(c:___flneg@f1)
  4818  000EC4  CFDE F001          	movff	postinc2,(c:___flneg@f1+1)
  4819  000EC8  CFDE F002          	movff	postinc2,(c:___flneg@f1+2)
  4820  000ECC  CFDE F003          	movff	postinc2,(c:___flneg@f1+3)
  4821  000ED0  CFDE F004          	call	___flneg	;wreg free
  4822  000ED4  EC60  F011         	movff	0+?___flneg,(c:___fladd@b)
  4823  000ED8  C001  F005         	movff	1+?___flneg,(c:___fladd@b+1)
  4824  000EDC  C002  F006         	movff	2+?___flneg,(c:___fladd@b+2)
  4825  000EE0  C003  F007         	movff	3+?___flneg,(c:___fladd@b+3)
  4826  000EE4  C004  F008         	
  4827                           	call	___fladd	;wreg free
  4828  000EE8  ECCC  F003         	movff	0+?___fladd,(c:___fltol@f1)
  4829  000EEC  C005  F019         	movff	1+?___fladd,(c:___fltol@f1+1)
  4830  000EF0  C006  F01A         	movff	2+?___fladd,(c:___fltol@f1+2)
  4831  000EF4  C007  F01B         	movff	3+?___fladd,(c:___fltol@f1+3)
  4832  000EF8  C008  F01C         	
  4833                           	call	___fltol	;wreg free
  4834  000EFC  ECAE  F00E         	bcf	status,0
  4835  000F00  90D8               	movlb	0	; () banked
  4836  000F02  0100               	rlcf	((compareVolumeUp@i))&0ffh,w
  4837  000F04  35A2               	movwf	fsr2l
  4838  000F06  6ED9               	rlcf	((compareVolumeUp@i+1))&0ffh,w
  4839  000F08  35A3               	movwf	fsr2h
  4840  000F0A  6EDA               	movlw	low(compareVolumeUp@sum)
  4841  000F0C  0E60               	addwf	fsr2l
  4842  000F0E  26D9               	movlw	high(compareVolumeUp@sum)
  4843  000F10  0E00               	addwfc	fsr2h
  4844  000F12  22DA               	movff	0+?___fltol,postinc2
  4845  000F14  C019  FFDE         	movff	1+?___fltol,postdec2
  4846  000F18  C01A  FFDD         
  4847                           	goto	l1970
  4848  000F1C  EF90  F007         	line	154
  4849                           ;main.c: 154:         }
  4850                           	
  4851                           l130:; BSR set to: 0
  4852  000F20                     
  4853                           	line	156
  4854                           	
  4855                           l1970:; BSR set to: 0
  4856  000F20                     
  4857                           ;main.c: 156:         acum=acum+sum[i];
  4858                           	bcf	status,0
  4859  000F20  90D8               	rlcf	((compareVolumeUp@i))&0ffh,w
  4860  000F22  35A2               	movwf	fsr2l
  4861  000F24  6ED9               	rlcf	((compareVolumeUp@i+1))&0ffh,w
  4862  000F26  35A3               	movwf	fsr2h
  4863  000F28  6EDA               	movlw	low(compareVolumeUp@sum)
  4864  000F2A  0E60               	addwf	fsr2l
  4865  000F2C  26D9               	movlw	high(compareVolumeUp@sum)
  4866  000F2E  0E00               	addwfc	fsr2h
  4867  000F30  22DA               	movff	postinc2,??_compareVolumeUp+0+0
  4868  000F32  CFDE F025          	movff	postdec2,??_compareVolumeUp+0+0+1
  4869  000F36  CFDD F026          	movf	((compareVolumeUp@acum))&0ffh,w
  4870  000F3A  51A0               	addwf	(??_compareVolumeUp+0+0),c,w
  4871  000F3C  2425               	movwf	((compareVolumeUp@acum))&0ffh
  4872  000F3E  6FA0               	movf	((compareVolumeUp@acum+1))&0ffh,w
  4873  000F40  51A1               	addwfc	(??_compareVolumeUp+0+1),c,w
  4874  000F42  2026               	movwf	1+((compareVolumeUp@acum))&0ffh
  4875  000F44  6FA1               	line	157
  4876                           	
  4877                           l1972:; BSR set to: 0
  4878  000F46                     
  4879                           ;main.c: 157:     }
  4880                           	infsnz	((compareVolumeUp@i))&0ffh
  4881  000F46  4BA2               	incf	((compareVolumeUp@i+1))&0ffh
  4882  000F48  2BA3               	
  4883                           l1974:; BSR set to: 0
  4884  000F4A                     
  4885                           	btfsc	((compareVolumeUp@i+1))&0ffh,7
  4886  000F4A  BFA3               	goto	u1891
  4887  000F4C  EFB1  F007         	movf	((compareVolumeUp@i+1))&0ffh,w
  4888  000F50  51A3               	bnz	u1890
  4889  000F52  E109               	movlw	32
  4890  000F54  0E20               	subwf	 ((compareVolumeUp@i))&0ffh,w
  4891  000F56  5DA2               	btfss	status,0
  4892  000F58  A0D8               	goto	u1891
  4893  000F5A  EFB1  F007         	goto	u1890
  4894  000F5E  EFB3  F007         
  4895                           u1891:
  4896  000F62                     	goto	l1964
  4897  000F62  EFA9  F006         u1890:
  4898  000F66                     	
  4899                           l128:; BSR set to: 0
  4900  000F66                     
  4901                           	line	159
  4902                           ;main.c: 159:     return acum;
  4903                           	movff	(compareVolumeUp@acum),(c:?_compareVolumeUp)
  4904  000F66  C0A0  F023         	movff	(compareVolumeUp@acum+1),(c:?_compareVolumeUp+1)
  4905  000F6A  C0A1  F024         	line	160
  4906                           	
  4907                           l131:; BSR set to: 0
  4908  000F6E                     
  4909                           	return	;funcret
  4910  000F6E  0012               	opt stack 0
  4911                           GLOBAL	__end_of_compareVolumeUp
  4912                           	__end_of_compareVolumeUp:
  4913  000F70                     	signat	_compareVolumeUp,90
  4914                           	global	_compareVolumeDown
  4915                           
  4916 ;; *************** function _compareVolumeDown *****************
  4917 ;; Defined at:
  4918 ;;		line 162 in file "main.c"
  4919 ;; Parameters:    Size  Location     Type
  4920 ;;		None
  4921 ;; Auto vars:     Size  Location     Type
  4922 ;;  i               2   66[BANK0 ] int 
  4923 ;;  sum            64    0[BANK0 ] int [32]
  4924 ;;  acum            2   64[BANK0 ] int 
  4925 ;; Return value:  Size  Location     Type
  4926 ;;                  2   34[COMRAM] int 
  4927 ;; Registers used:
  4928 ;;		wreg, fsr2l, fsr2h, status,2, status,0, cstack
  4929 ;; Tracked objects:
  4930 ;;		On entry : 0/0
  4931 ;;		On exit  : 0/0
  4932 ;;		Unchanged: 0/0
  4933 ;; Data sizes:     COMRAM   BANK0   BANK1   BANK2   BANK3   BANK4   BANK5   BANK6   BANK7
  4934 ;;      Params:         2       0       0       0       0       0       0       0       0
  4935 ;;      Locals:         0      68       0       0       0       0       0       0       0
  4936 ;;      Temps:          4       0       0       0       0       0       0       0       0
  4937 ;;      Totals:         6      68       0       0       0       0       0       0       0
  4938 ;;Total ram usage:       74 bytes
  4939 ;; Hardware stack levels used:    1
  4940 ;; Hardware stack levels required when called:    3
  4941 ;; This function calls:
  4942 ;;		___fladd
  4943 ;;		___flge
  4944 ;;		___flneg
  4945 ;;		___fltol
  4946 ;; This function is called by:
  4947 ;;		_compareSignals
  4948 ;; This function uses a non-reentrant model
  4949 ;;
  4950                           psect	text8,class=CODE,space=0,reloc=2,group=0
  4951                           	line	162
  4952                           global __ptext8
  4953                           __ptext8:
  4954  000F70                     psect	text8
  4955                           	file	"main.c"
  4956                           	line	162
  4957                           	global	__size_of_compareVolumeDown
  4958                           	__size_of_compareVolumeDown	equ	__end_of_compareVolumeDown-_compareVolumeDown
  4959  0000                     	
  4960                           _compareVolumeDown:; BSR set to: 0
  4961  000F70                     
  4962                           ;incstack = 0
  4963                           	opt	stack 26
  4964                           	line	163
  4965                           	
  4966                           l1976:
  4967  000F70                     ;main.c: 163:     int acum=0;
  4968                           	movlw	high(0)
  4969  000F70  0E00               	movlb	0	; () banked
  4970  000F72  0100               	movwf	((compareVolumeDown@acum+1))&0ffh
  4971  000F74  6FA1               	movlw	low(0)
  4972  000F76  0E00               	movwf	((compareVolumeDown@acum))&0ffh
  4973  000F78  6FA0               	line	166
  4974                           ;main.c: 164:     int sum[32];;main.c: 166:     for (int i=0;i<32;i++){
  4975                           	movlw	high(0)
  4976  000F7A  0E00               	movwf	((compareVolumeDown@i+1))&0ffh
  4977  000F7C  6FA3               	movlw	low(0)
  4978  000F7E  0E00               	movwf	((compareVolumeDown@i))&0ffh
  4979  000F80  6FA2               	
  4980                           l1978:; BSR set to: 0
  4981  000F82                     
  4982                           	btfsc	((compareVolumeDown@i+1))&0ffh,7
  4983  000F82  BFA3               	goto	u1901
  4984  000F84  EFCD  F007         	movf	((compareVolumeDown@i+1))&0ffh,w
  4985  000F88  51A3               	bnz	u1900
  4986  000F8A  E109               	movlw	32
  4987  000F8C  0E20               	subwf	 ((compareVolumeDown@i))&0ffh,w
  4988  000F8E  5DA2               	btfss	status,0
  4989  000F90  A0D8               	goto	u1901
  4990  000F92  EFCD  F007         	goto	u1900
  4991  000F96  EFCF  F007         
  4992                           u1901:
  4993  000F9A                     	goto	l1982
  4994  000F9A  EFD3  F007         u1900:
  4995  000F9E                     	goto	l135
  4996  000F9E  EFDD  F008         	
  4997                           l1980:; BSR set to: 0
  4998  000FA2                     
  4999                           	goto	l135
  5000  000FA2  EFDD  F008         	
  5001                           l134:; BSR set to: 0
  5002  000FA6                     
  5003                           	line	167
  5004                           	
  5005                           l1982:; BSR set to: 0
  5006  000FA6                     
  5007                           ;main.c: 167:         if (timerValue[i]>=volumeDownCode[i]){
  5008                           	movlw	low((_timerValue))
  5009  000FA6  0E00               	movwf	(??_compareVolumeDown+0+0)&0ffh,c
  5010  000FA8  6E25               	movlw	high((_timerValue))
  5011  000FAA  0E01               	movwf	1+(??_compareVolumeDown+0+0)&0ffh,c
  5012  000FAC  6E26               	bcf	status,0
  5013  000FAE  90D8               	rlcf	((compareVolumeDown@i))&0ffh,w
  5014  000FB0  35A2               	movwf	fsr2l
  5015  000FB2  6ED9               	rlcf	((compareVolumeDown@i+1))&0ffh,w
  5016  000FB4  35A3               	movwf	fsr2h
  5017  000FB6  6EDA               	bcf	status,0
  5018  000FB8  90D8               	rlcf	fsr2l,f
  5019  000FBA  36D9               	rlcf	fsr2h,f
  5020  000FBC  36DA               	movf	(??_compareVolumeDown+0+0),c,w
  5021  000FBE  5025               	addwf	fsr2l
  5022  000FC0  26D9               	movf	(??_compareVolumeDown+0+1),c,w
  5023  000FC2  5026               	addwfc	fsr2h
  5024  000FC4  22DA               
  5025                           	movff	postinc2,(c:___flge@ff1)
  5026  000FC6  CFDE F001          	movff	postinc2,(c:___flge@ff1+1)
  5027  000FCA  CFDE F002          	movff	postinc2,(c:___flge@ff1+2)
  5028  000FCE  CFDE F003          	movff	postinc2,(c:___flge@ff1+3)
  5029  000FD2  CFDE F004          	movlw	low((_volumeDownCode))
  5030  000FD6  0E00               	movwf	(??_compareVolumeDown+2+0)&0ffh,c
  5031  000FD8  6E27               	movlw	high((_volumeDownCode))
  5032  000FDA  0E02               	movwf	1+(??_compareVolumeDown+2+0)&0ffh,c
  5033  000FDC  6E28               	bcf	status,0
  5034  000FDE  90D8               	rlcf	((compareVolumeDown@i))&0ffh,w
  5035  000FE0  35A2               	movwf	fsr2l
  5036  000FE2  6ED9               	rlcf	((compareVolumeDown@i+1))&0ffh,w
  5037  000FE4  35A3               	movwf	fsr2h
  5038  000FE6  6EDA               	bcf	status,0
  5039  000FE8  90D8               	rlcf	fsr2l,f
  5040  000FEA  36D9               	rlcf	fsr2h,f
  5041  000FEC  36DA               	movf	(??_compareVolumeDown+2+0),c,w
  5042  000FEE  5027               	addwf	fsr2l
  5043  000FF0  26D9               	movf	(??_compareVolumeDown+2+1),c,w
  5044  000FF2  5028               	addwfc	fsr2h
  5045  000FF4  22DA               
  5046                           	movff	postinc2,(c:___flge@ff2)
  5047  000FF6  CFDE F005          	movff	postinc2,(c:___flge@ff2+1)
  5048  000FFA  CFDE F006          	movff	postinc2,(c:___flge@ff2+2)
  5049  000FFE  CFDE F007          	movff	postinc2,(c:___flge@ff2+3)
  5050  001002  CFDE F008          	call	___flge	;wreg free
  5051  001006  EC4E  F00D         	btfss	status,0
  5052  00100A  A0D8               	goto	u1911
  5053  00100C  EF0A  F008         	goto	u1910
  5054  001010  EF0C  F008         u1911:
  5055  001014                     	goto	l1986
  5056  001014  EF63  F008         u1910:
  5057  001018                     	line	168
  5058                           	
  5059                           l1984:
  5060  001018                     ;main.c: 168:             sum[i]=timerValue[i]-volumeDownCode[i];
  5061                           	movlw	low((_timerValue))
  5062  001018  0E00               	movwf	(??_compareVolumeDown+0+0)&0ffh,c
  5063  00101A  6E25               	movlw	high((_timerValue))
  5064  00101C  0E01               	movwf	1+(??_compareVolumeDown+0+0)&0ffh,c
  5065  00101E  6E26               	bcf	status,0
  5066  001020  90D8               	movlb	0	; () banked
  5067  001022  0100               	rlcf	((compareVolumeDown@i))&0ffh,w
  5068  001024  35A2               	movwf	fsr2l
  5069  001026  6ED9               	rlcf	((compareVolumeDown@i+1))&0ffh,w
  5070  001028  35A3               	movwf	fsr2h
  5071  00102A  6EDA               	bcf	status,0
  5072  00102C  90D8               	rlcf	fsr2l,f
  5073  00102E  36D9               	rlcf	fsr2h,f
  5074  001030  36DA               	movf	(??_compareVolumeDown+0+0),c,w
  5075  001032  5025               	addwf	fsr2l
  5076  001034  26D9               	movf	(??_compareVolumeDown+0+1),c,w
  5077  001036  5026               	addwfc	fsr2h
  5078  001038  22DA               
  5079                           	movff	postinc2,(c:___fladd@a)
  5080  00103A  CFDE F009          	movff	postinc2,(c:___fladd@a+1)
  5081  00103E  CFDE F00A          	movff	postinc2,(c:___fladd@a+2)
  5082  001042  CFDE F00B          	movff	postinc2,(c:___fladd@a+3)
  5083  001046  CFDE F00C          	movlw	low((_volumeDownCode))
  5084  00104A  0E00               	movwf	(??_compareVolumeDown+2+0)&0ffh,c
  5085  00104C  6E27               	movlw	high((_volumeDownCode))
  5086  00104E  0E02               	movwf	1+(??_compareVolumeDown+2+0)&0ffh,c
  5087  001050  6E28               	bcf	status,0
  5088  001052  90D8               	rlcf	((compareVolumeDown@i))&0ffh,w
  5089  001054  35A2               	movwf	fsr2l
  5090  001056  6ED9               	rlcf	((compareVolumeDown@i+1))&0ffh,w
  5091  001058  35A3               	movwf	fsr2h
  5092  00105A  6EDA               	bcf	status,0
  5093  00105C  90D8               	rlcf	fsr2l,f
  5094  00105E  36D9               	rlcf	fsr2h,f
  5095  001060  36DA               	movf	(??_compareVolumeDown+2+0),c,w
  5096  001062  5027               	addwf	fsr2l
  5097  001064  26D9               	movf	(??_compareVolumeDown+2+1),c,w
  5098  001066  5028               	addwfc	fsr2h
  5099  001068  22DA               
  5100                           	movff	postinc2,(c:___flneg@f1)
  5101  00106A  CFDE F001          	movff	postinc2,(c:___flneg@f1+1)
  5102  00106E  CFDE F002          	movff	postinc2,(c:___flneg@f1+2)
  5103  001072  CFDE F003          	movff	postinc2,(c:___flneg@f1+3)
  5104  001076  CFDE F004          	call	___flneg	;wreg free
  5105  00107A  EC60  F011         	movff	0+?___flneg,(c:___fladd@b)
  5106  00107E  C001  F005         	movff	1+?___flneg,(c:___fladd@b+1)
  5107  001082  C002  F006         	movff	2+?___flneg,(c:___fladd@b+2)
  5108  001086  C003  F007         	movff	3+?___flneg,(c:___fladd@b+3)
  5109  00108A  C004  F008         	
  5110                           	call	___fladd	;wreg free
  5111  00108E  ECCC  F003         	movff	0+?___fladd,(c:___fltol@f1)
  5112  001092  C005  F019         	movff	1+?___fladd,(c:___fltol@f1+1)
  5113  001096  C006  F01A         	movff	2+?___fladd,(c:___fltol@f1+2)
  5114  00109A  C007  F01B         	movff	3+?___fladd,(c:___fltol@f1+3)
  5115  00109E  C008  F01C         	
  5116                           	call	___fltol	;wreg free
  5117  0010A2  ECAE  F00E         	bcf	status,0
  5118  0010A6  90D8               	movlb	0	; () banked
  5119  0010A8  0100               	rlcf	((compareVolumeDown@i))&0ffh,w
  5120  0010AA  35A2               	movwf	fsr2l
  5121  0010AC  6ED9               	rlcf	((compareVolumeDown@i+1))&0ffh,w
  5122  0010AE  35A3               	movwf	fsr2h
  5123  0010B0  6EDA               	movlw	low(compareVolumeDown@sum)
  5124  0010B2  0E60               	addwf	fsr2l
  5125  0010B4  26D9               	movlw	high(compareVolumeDown@sum)
  5126  0010B6  0E00               	addwfc	fsr2h
  5127  0010B8  22DA               	movff	0+?___fltol,postinc2
  5128  0010BA  C019  FFDE         	movff	1+?___fltol,postdec2
  5129  0010BE  C01A  FFDD         
  5130                           	line	169
  5131                           ;main.c: 169:         }else{
  5132                           	goto	l1988
  5133  0010C2  EFBA  F008         	
  5134                           l136:; BSR set to: 0
  5135  0010C6                     
  5136                           	line	170
  5137                           	
  5138                           l1986:
  5139  0010C6                     ;main.c: 170:             sum[i]=volumeDownCode[i]-timerValue[i];
  5140                           	movlw	low((_volumeDownCode))
  5141  0010C6  0E00               	movwf	(??_compareVolumeDown+0+0)&0ffh,c
  5142  0010C8  6E25               	movlw	high((_volumeDownCode))
  5143  0010CA  0E02               	movwf	1+(??_compareVolumeDown+0+0)&0ffh,c
  5144  0010CC  6E26               	bcf	status,0
  5145  0010CE  90D8               	movlb	0	; () banked
  5146  0010D0  0100               	rlcf	((compareVolumeDown@i))&0ffh,w
  5147  0010D2  35A2               	movwf	fsr2l
  5148  0010D4  6ED9               	rlcf	((compareVolumeDown@i+1))&0ffh,w
  5149  0010D6  35A3               	movwf	fsr2h
  5150  0010D8  6EDA               	bcf	status,0
  5151  0010DA  90D8               	rlcf	fsr2l,f
  5152  0010DC  36D9               	rlcf	fsr2h,f
  5153  0010DE  36DA               	movf	(??_compareVolumeDown+0+0),c,w
  5154  0010E0  5025               	addwf	fsr2l
  5155  0010E2  26D9               	movf	(??_compareVolumeDown+0+1),c,w
  5156  0010E4  5026               	addwfc	fsr2h
  5157  0010E6  22DA               
  5158                           	movff	postinc2,(c:___fladd@a)
  5159  0010E8  CFDE F009          	movff	postinc2,(c:___fladd@a+1)
  5160  0010EC  CFDE F00A          	movff	postinc2,(c:___fladd@a+2)
  5161  0010F0  CFDE F00B          	movff	postinc2,(c:___fladd@a+3)
  5162  0010F4  CFDE F00C          	movlw	low((_timerValue))
  5163  0010F8  0E00               	movwf	(??_compareVolumeDown+2+0)&0ffh,c
  5164  0010FA  6E27               	movlw	high((_timerValue))
  5165  0010FC  0E01               	movwf	1+(??_compareVolumeDown+2+0)&0ffh,c
  5166  0010FE  6E28               	bcf	status,0
  5167  001100  90D8               	rlcf	((compareVolumeDown@i))&0ffh,w
  5168  001102  35A2               	movwf	fsr2l
  5169  001104  6ED9               	rlcf	((compareVolumeDown@i+1))&0ffh,w
  5170  001106  35A3               	movwf	fsr2h
  5171  001108  6EDA               	bcf	status,0
  5172  00110A  90D8               	rlcf	fsr2l,f
  5173  00110C  36D9               	rlcf	fsr2h,f
  5174  00110E  36DA               	movf	(??_compareVolumeDown+2+0),c,w
  5175  001110  5027               	addwf	fsr2l
  5176  001112  26D9               	movf	(??_compareVolumeDown+2+1),c,w
  5177  001114  5028               	addwfc	fsr2h
  5178  001116  22DA               
  5179                           	movff	postinc2,(c:___flneg@f1)
  5180  001118  CFDE F001          	movff	postinc2,(c:___flneg@f1+1)
  5181  00111C  CFDE F002          	movff	postinc2,(c:___flneg@f1+2)
  5182  001120  CFDE F003          	movff	postinc2,(c:___flneg@f1+3)
  5183  001124  CFDE F004          	call	___flneg	;wreg free
  5184  001128  EC60  F011         	movff	0+?___flneg,(c:___fladd@b)
  5185  00112C  C001  F005         	movff	1+?___flneg,(c:___fladd@b+1)
  5186  001130  C002  F006         	movff	2+?___flneg,(c:___fladd@b+2)
  5187  001134  C003  F007         	movff	3+?___flneg,(c:___fladd@b+3)
  5188  001138  C004  F008         	
  5189                           	call	___fladd	;wreg free
  5190  00113C  ECCC  F003         	movff	0+?___fladd,(c:___fltol@f1)
  5191  001140  C005  F019         	movff	1+?___fladd,(c:___fltol@f1+1)
  5192  001144  C006  F01A         	movff	2+?___fladd,(c:___fltol@f1+2)
  5193  001148  C007  F01B         	movff	3+?___fladd,(c:___fltol@f1+3)
  5194  00114C  C008  F01C         	
  5195                           	call	___fltol	;wreg free
  5196  001150  ECAE  F00E         	bcf	status,0
  5197  001154  90D8               	movlb	0	; () banked
  5198  001156  0100               	rlcf	((compareVolumeDown@i))&0ffh,w
  5199  001158  35A2               	movwf	fsr2l
  5200  00115A  6ED9               	rlcf	((compareVolumeDown@i+1))&0ffh,w
  5201  00115C  35A3               	movwf	fsr2h
  5202  00115E  6EDA               	movlw	low(compareVolumeDown@sum)
  5203  001160  0E60               	addwf	fsr2l
  5204  001162  26D9               	movlw	high(compareVolumeDown@sum)
  5205  001164  0E00               	addwfc	fsr2h
  5206  001166  22DA               	movff	0+?___fltol,postinc2
  5207  001168  C019  FFDE         	movff	1+?___fltol,postdec2
  5208  00116C  C01A  FFDD         
  5209                           	goto	l1988
  5210  001170  EFBA  F008         	line	171
  5211                           ;main.c: 171:         }
  5212                           	
  5213                           l137:; BSR set to: 0
  5214  001174                     
  5215                           	line	173
  5216                           	
  5217                           l1988:; BSR set to: 0
  5218  001174                     
  5219                           ;main.c: 173:         acum=acum+sum[i];
  5220                           	bcf	status,0
  5221  001174  90D8               	rlcf	((compareVolumeDown@i))&0ffh,w
  5222  001176  35A2               	movwf	fsr2l
  5223  001178  6ED9               	rlcf	((compareVolumeDown@i+1))&0ffh,w
  5224  00117A  35A3               	movwf	fsr2h
  5225  00117C  6EDA               	movlw	low(compareVolumeDown@sum)
  5226  00117E  0E60               	addwf	fsr2l
  5227  001180  26D9               	movlw	high(compareVolumeDown@sum)
  5228  001182  0E00               	addwfc	fsr2h
  5229  001184  22DA               	movff	postinc2,??_compareVolumeDown+0+0
  5230  001186  CFDE F025          	movff	postdec2,??_compareVolumeDown+0+0+1
  5231  00118A  CFDD F026          	movf	((compareVolumeDown@acum))&0ffh,w
  5232  00118E  51A0               	addwf	(??_compareVolumeDown+0+0),c,w
  5233  001190  2425               	movwf	((compareVolumeDown@acum))&0ffh
  5234  001192  6FA0               	movf	((compareVolumeDown@acum+1))&0ffh,w
  5235  001194  51A1               	addwfc	(??_compareVolumeDown+0+1),c,w
  5236  001196  2026               	movwf	1+((compareVolumeDown@acum))&0ffh
  5237  001198  6FA1               	line	174
  5238                           	
  5239                           l1990:; BSR set to: 0
  5240  00119A                     
  5241                           ;main.c: 174:     }
  5242                           	infsnz	((compareVolumeDown@i))&0ffh
  5243  00119A  4BA2               	incf	((compareVolumeDown@i+1))&0ffh
  5244  00119C  2BA3               	
  5245                           l1992:; BSR set to: 0
  5246  00119E                     
  5247                           	btfsc	((compareVolumeDown@i+1))&0ffh,7
  5248  00119E  BFA3               	goto	u1921
  5249  0011A0  EFDB  F008         	movf	((compareVolumeDown@i+1))&0ffh,w
  5250  0011A4  51A3               	bnz	u1920
  5251  0011A6  E109               	movlw	32
  5252  0011A8  0E20               	subwf	 ((compareVolumeDown@i))&0ffh,w
  5253  0011AA  5DA2               	btfss	status,0
  5254  0011AC  A0D8               	goto	u1921
  5255  0011AE  EFDB  F008         	goto	u1920
  5256  0011B2  EFDD  F008         
  5257                           u1921:
  5258  0011B6                     	goto	l1982
  5259  0011B6  EFD3  F007         u1920:
  5260  0011BA                     	
  5261                           l135:; BSR set to: 0
  5262  0011BA                     
  5263                           	line	176
  5264                           ;main.c: 176:     return acum;
  5265                           	movff	(compareVolumeDown@acum),(c:?_compareVolumeDown)
  5266  0011BA  C0A0  F023         	movff	(compareVolumeDown@acum+1),(c:?_compareVolumeDown+1)
  5267  0011BE  C0A1  F024         	line	177
  5268                           	
  5269                           l138:; BSR set to: 0
  5270  0011C2                     
  5271                           	return	;funcret
  5272  0011C2  0012               	opt stack 0
  5273                           GLOBAL	__end_of_compareVolumeDown
  5274                           	__end_of_compareVolumeDown:
  5275  0011C4                     	signat	_compareVolumeDown,90
  5276                           	global	_compareTurnOn
  5277                           
  5278 ;; *************** function _compareTurnOn *****************
  5279 ;; Defined at:
  5280 ;;		line 128 in file "main.c"
  5281 ;; Parameters:    Size  Location     Type
  5282 ;;		None
  5283 ;; Auto vars:     Size  Location     Type
  5284 ;;  i               2   62[BANK0 ] int 
  5285 ;;  sum            60    0[BANK0 ] int [30]
  5286 ;;  acum            2   60[BANK0 ] int 
  5287 ;; Return value:  Size  Location     Type
  5288 ;;                  2   34[COMRAM] int 
  5289 ;; Registers used:
  5290 ;;		wreg, fsr2l, fsr2h, status,2, status,0, cstack
  5291 ;; Tracked objects:
  5292 ;;		On entry : 0/0
  5293 ;;		On exit  : 0/0
  5294 ;;		Unchanged: 0/0
  5295 ;; Data sizes:     COMRAM   BANK0   BANK1   BANK2   BANK3   BANK4   BANK5   BANK6   BANK7
  5296 ;;      Params:         2       0       0       0       0       0       0       0       0
  5297 ;;      Locals:         0      64       0       0       0       0       0       0       0
  5298 ;;      Temps:          4       0       0       0       0       0       0       0       0
  5299 ;;      Totals:         6      64       0       0       0       0       0       0       0
  5300 ;;Total ram usage:       70 bytes
  5301 ;; Hardware stack levels used:    1
  5302 ;; Hardware stack levels required when called:    3
  5303 ;; This function calls:
  5304 ;;		___fladd
  5305 ;;		___flge
  5306 ;;		___flneg
  5307 ;;		___fltol
  5308 ;; This function is called by:
  5309 ;;		_compareSignals
  5310 ;; This function uses a non-reentrant model
  5311 ;;
  5312                           psect	text9,class=CODE,space=0,reloc=2,group=0
  5313                           	line	128
  5314                           global __ptext9
  5315                           __ptext9:
  5316  0011C4                     psect	text9
  5317                           	file	"main.c"
  5318                           	line	128
  5319                           	global	__size_of_compareTurnOn
  5320                           	__size_of_compareTurnOn	equ	__end_of_compareTurnOn-_compareTurnOn
  5321  0000                     	
  5322                           _compareTurnOn:; BSR set to: 0
  5323  0011C4                     
  5324                           ;incstack = 0
  5325                           	opt	stack 26
  5326                           	line	129
  5327                           	
  5328                           l1940:
  5329  0011C4                     ;main.c: 129:     int acum=0;
  5330                           	movlw	high(0)
  5331  0011C4  0E00               	movlb	0	; () banked
  5332  0011C6  0100               	movwf	((compareTurnOn@acum+1))&0ffh
  5333  0011C8  6F9D               	movlw	low(0)
  5334  0011CA  0E00               	movwf	((compareTurnOn@acum))&0ffh
  5335  0011CC  6F9C               	line	132
  5336                           ;main.c: 130:     int sum[30];;main.c: 132:     for (int i=0;i<30;i++){
  5337                           	movlw	high(0)
  5338  0011CE  0E00               	movwf	((compareTurnOn@i+1))&0ffh
  5339  0011D0  6F9F               	movlw	low(0)
  5340  0011D2  0E00               	movwf	((compareTurnOn@i))&0ffh
  5341  0011D4  6F9E               	
  5342                           l1942:; BSR set to: 0
  5343  0011D6                     
  5344                           	btfsc	((compareTurnOn@i+1))&0ffh,7
  5345  0011D6  BF9F               	goto	u1841
  5346  0011D8  EFF7  F008         	movf	((compareTurnOn@i+1))&0ffh,w
  5347  0011DC  519F               	bnz	u1840
  5348  0011DE  E109               	movlw	30
  5349  0011E0  0E1E               	subwf	 ((compareTurnOn@i))&0ffh,w
  5350  0011E2  5D9E               	btfss	status,0
  5351  0011E4  A0D8               	goto	u1841
  5352  0011E6  EFF7  F008         	goto	u1840
  5353  0011EA  EFF9  F008         
  5354                           u1841:
  5355  0011EE                     	goto	l1946
  5356  0011EE  EFFD  F008         u1840:
  5357  0011F2                     	goto	l121
  5358  0011F2  EF07  F00A         	
  5359                           l1944:; BSR set to: 0
  5360  0011F6                     
  5361                           	goto	l121
  5362  0011F6  EF07  F00A         	
  5363                           l120:; BSR set to: 0
  5364  0011FA                     
  5365                           	line	133
  5366                           	
  5367                           l1946:; BSR set to: 0
  5368  0011FA                     
  5369                           ;main.c: 133:         if (timerValue[i]>=turnOnCode[i]){
  5370                           	movlw	low((_timerValue))
  5371  0011FA  0E00               	movwf	(??_compareTurnOn+0+0)&0ffh,c
  5372  0011FC  6E25               	movlw	high((_timerValue))
  5373  0011FE  0E01               	movwf	1+(??_compareTurnOn+0+0)&0ffh,c
  5374  001200  6E26               	bcf	status,0
  5375  001202  90D8               	rlcf	((compareTurnOn@i))&0ffh,w
  5376  001204  359E               	movwf	fsr2l
  5377  001206  6ED9               	rlcf	((compareTurnOn@i+1))&0ffh,w
  5378  001208  359F               	movwf	fsr2h
  5379  00120A  6EDA               	bcf	status,0
  5380  00120C  90D8               	rlcf	fsr2l,f
  5381  00120E  36D9               	rlcf	fsr2h,f
  5382  001210  36DA               	movf	(??_compareTurnOn+0+0),c,w
  5383  001212  5025               	addwf	fsr2l
  5384  001214  26D9               	movf	(??_compareTurnOn+0+1),c,w
  5385  001216  5026               	addwfc	fsr2h
  5386  001218  22DA               
  5387                           	movff	postinc2,(c:___flge@ff1)
  5388  00121A  CFDE F001          	movff	postinc2,(c:___flge@ff1+1)
  5389  00121E  CFDE F002          	movff	postinc2,(c:___flge@ff1+2)
  5390  001222  CFDE F003          	movff	postinc2,(c:___flge@ff1+3)
  5391  001226  CFDE F004          	movlw	low((_turnOnCode))
  5392  00122A  0E80               	movwf	(??_compareTurnOn+2+0)&0ffh,c
  5393  00122C  6E27               	movlw	high((_turnOnCode))
  5394  00122E  0E01               	movwf	1+(??_compareTurnOn+2+0)&0ffh,c
  5395  001230  6E28               	bcf	status,0
  5396  001232  90D8               	rlcf	((compareTurnOn@i))&0ffh,w
  5397  001234  359E               	movwf	fsr2l
  5398  001236  6ED9               	rlcf	((compareTurnOn@i+1))&0ffh,w
  5399  001238  359F               	movwf	fsr2h
  5400  00123A  6EDA               	bcf	status,0
  5401  00123C  90D8               	rlcf	fsr2l,f
  5402  00123E  36D9               	rlcf	fsr2h,f
  5403  001240  36DA               	movf	(??_compareTurnOn+2+0),c,w
  5404  001242  5027               	addwf	fsr2l
  5405  001244  26D9               	movf	(??_compareTurnOn+2+1),c,w
  5406  001246  5028               	addwfc	fsr2h
  5407  001248  22DA               
  5408                           	movff	postinc2,(c:___flge@ff2)
  5409  00124A  CFDE F005          	movff	postinc2,(c:___flge@ff2+1)
  5410  00124E  CFDE F006          	movff	postinc2,(c:___flge@ff2+2)
  5411  001252  CFDE F007          	movff	postinc2,(c:___flge@ff2+3)
  5412  001256  CFDE F008          	call	___flge	;wreg free
  5413  00125A  EC4E  F00D         	btfss	status,0
  5414  00125E  A0D8               	goto	u1851
  5415  001260  EF34  F009         	goto	u1850
  5416  001264  EF36  F009         u1851:
  5417  001268                     	goto	l1950
  5418  001268  EF8D  F009         u1850:
  5419  00126C                     	line	134
  5420                           	
  5421                           l1948:
  5422  00126C                     ;main.c: 134:             sum[i]=timerValue[i]-turnOnCode[i];
  5423                           	movlw	low((_timerValue))
  5424  00126C  0E00               	movwf	(??_compareTurnOn+0+0)&0ffh,c
  5425  00126E  6E25               	movlw	high((_timerValue))
  5426  001270  0E01               	movwf	1+(??_compareTurnOn+0+0)&0ffh,c
  5427  001272  6E26               	bcf	status,0
  5428  001274  90D8               	movlb	0	; () banked
  5429  001276  0100               	rlcf	((compareTurnOn@i))&0ffh,w
  5430  001278  359E               	movwf	fsr2l
  5431  00127A  6ED9               	rlcf	((compareTurnOn@i+1))&0ffh,w
  5432  00127C  359F               	movwf	fsr2h
  5433  00127E  6EDA               	bcf	status,0
  5434  001280  90D8               	rlcf	fsr2l,f
  5435  001282  36D9               	rlcf	fsr2h,f
  5436  001284  36DA               	movf	(??_compareTurnOn+0+0),c,w
  5437  001286  5025               	addwf	fsr2l
  5438  001288  26D9               	movf	(??_compareTurnOn+0+1),c,w
  5439  00128A  5026               	addwfc	fsr2h
  5440  00128C  22DA               
  5441                           	movff	postinc2,(c:___fladd@a)
  5442  00128E  CFDE F009          	movff	postinc2,(c:___fladd@a+1)
  5443  001292  CFDE F00A          	movff	postinc2,(c:___fladd@a+2)
  5444  001296  CFDE F00B          	movff	postinc2,(c:___fladd@a+3)
  5445  00129A  CFDE F00C          	movlw	low((_turnOnCode))
  5446  00129E  0E80               	movwf	(??_compareTurnOn+2+0)&0ffh,c
  5447  0012A0  6E27               	movlw	high((_turnOnCode))
  5448  0012A2  0E01               	movwf	1+(??_compareTurnOn+2+0)&0ffh,c
  5449  0012A4  6E28               	bcf	status,0
  5450  0012A6  90D8               	rlcf	((compareTurnOn@i))&0ffh,w
  5451  0012A8  359E               	movwf	fsr2l
  5452  0012AA  6ED9               	rlcf	((compareTurnOn@i+1))&0ffh,w
  5453  0012AC  359F               	movwf	fsr2h
  5454  0012AE  6EDA               	bcf	status,0
  5455  0012B0  90D8               	rlcf	fsr2l,f
  5456  0012B2  36D9               	rlcf	fsr2h,f
  5457  0012B4  36DA               	movf	(??_compareTurnOn+2+0),c,w
  5458  0012B6  5027               	addwf	fsr2l
  5459  0012B8  26D9               	movf	(??_compareTurnOn+2+1),c,w
  5460  0012BA  5028               	addwfc	fsr2h
  5461  0012BC  22DA               
  5462                           	movff	postinc2,(c:___flneg@f1)
  5463  0012BE  CFDE F001          	movff	postinc2,(c:___flneg@f1+1)
  5464  0012C2  CFDE F002          	movff	postinc2,(c:___flneg@f1+2)
  5465  0012C6  CFDE F003          	movff	postinc2,(c:___flneg@f1+3)
  5466  0012CA  CFDE F004          	call	___flneg	;wreg free
  5467  0012CE  EC60  F011         	movff	0+?___flneg,(c:___fladd@b)
  5468  0012D2  C001  F005         	movff	1+?___flneg,(c:___fladd@b+1)
  5469  0012D6  C002  F006         	movff	2+?___flneg,(c:___fladd@b+2)
  5470  0012DA  C003  F007         	movff	3+?___flneg,(c:___fladd@b+3)
  5471  0012DE  C004  F008         	
  5472                           	call	___fladd	;wreg free
  5473  0012E2  ECCC  F003         	movff	0+?___fladd,(c:___fltol@f1)
  5474  0012E6  C005  F019         	movff	1+?___fladd,(c:___fltol@f1+1)
  5475  0012EA  C006  F01A         	movff	2+?___fladd,(c:___fltol@f1+2)
  5476  0012EE  C007  F01B         	movff	3+?___fladd,(c:___fltol@f1+3)
  5477  0012F2  C008  F01C         	
  5478                           	call	___fltol	;wreg free
  5479  0012F6  ECAE  F00E         	bcf	status,0
  5480  0012FA  90D8               	movlb	0	; () banked
  5481  0012FC  0100               	rlcf	((compareTurnOn@i))&0ffh,w
  5482  0012FE  359E               	movwf	fsr2l
  5483  001300  6ED9               	rlcf	((compareTurnOn@i+1))&0ffh,w
  5484  001302  359F               	movwf	fsr2h
  5485  001304  6EDA               	movlw	low(compareTurnOn@sum)
  5486  001306  0E60               	addwf	fsr2l
  5487  001308  26D9               	movlw	high(compareTurnOn@sum)
  5488  00130A  0E00               	addwfc	fsr2h
  5489  00130C  22DA               	movff	0+?___fltol,postinc2
  5490  00130E  C019  FFDE         	movff	1+?___fltol,postdec2
  5491  001312  C01A  FFDD         
  5492                           	line	135
  5493                           ;main.c: 135:         }else{
  5494                           	goto	l1952
  5495  001316  EFE4  F009         	
  5496                           l122:; BSR set to: 0
  5497  00131A                     
  5498                           	line	136
  5499                           	
  5500                           l1950:
  5501  00131A                     ;main.c: 136:             sum[i]=turnOnCode[i]-timerValue[i];
  5502                           	movlw	low((_turnOnCode))
  5503  00131A  0E80               	movwf	(??_compareTurnOn+0+0)&0ffh,c
  5504  00131C  6E25               	movlw	high((_turnOnCode))
  5505  00131E  0E01               	movwf	1+(??_compareTurnOn+0+0)&0ffh,c
  5506  001320  6E26               	bcf	status,0
  5507  001322  90D8               	movlb	0	; () banked
  5508  001324  0100               	rlcf	((compareTurnOn@i))&0ffh,w
  5509  001326  359E               	movwf	fsr2l
  5510  001328  6ED9               	rlcf	((compareTurnOn@i+1))&0ffh,w
  5511  00132A  359F               	movwf	fsr2h
  5512  00132C  6EDA               	bcf	status,0
  5513  00132E  90D8               	rlcf	fsr2l,f
  5514  001330  36D9               	rlcf	fsr2h,f
  5515  001332  36DA               	movf	(??_compareTurnOn+0+0),c,w
  5516  001334  5025               	addwf	fsr2l
  5517  001336  26D9               	movf	(??_compareTurnOn+0+1),c,w
  5518  001338  5026               	addwfc	fsr2h
  5519  00133A  22DA               
  5520                           	movff	postinc2,(c:___fladd@a)
  5521  00133C  CFDE F009          	movff	postinc2,(c:___fladd@a+1)
  5522  001340  CFDE F00A          	movff	postinc2,(c:___fladd@a+2)
  5523  001344  CFDE F00B          	movff	postinc2,(c:___fladd@a+3)
  5524  001348  CFDE F00C          	movlw	low((_timerValue))
  5525  00134C  0E00               	movwf	(??_compareTurnOn+2+0)&0ffh,c
  5526  00134E  6E27               	movlw	high((_timerValue))
  5527  001350  0E01               	movwf	1+(??_compareTurnOn+2+0)&0ffh,c
  5528  001352  6E28               	bcf	status,0
  5529  001354  90D8               	rlcf	((compareTurnOn@i))&0ffh,w
  5530  001356  359E               	movwf	fsr2l
  5531  001358  6ED9               	rlcf	((compareTurnOn@i+1))&0ffh,w
  5532  00135A  359F               	movwf	fsr2h
  5533  00135C  6EDA               	bcf	status,0
  5534  00135E  90D8               	rlcf	fsr2l,f
  5535  001360  36D9               	rlcf	fsr2h,f
  5536  001362  36DA               	movf	(??_compareTurnOn+2+0),c,w
  5537  001364  5027               	addwf	fsr2l
  5538  001366  26D9               	movf	(??_compareTurnOn+2+1),c,w
  5539  001368  5028               	addwfc	fsr2h
  5540  00136A  22DA               
  5541                           	movff	postinc2,(c:___flneg@f1)
  5542  00136C  CFDE F001          	movff	postinc2,(c:___flneg@f1+1)
  5543  001370  CFDE F002          	movff	postinc2,(c:___flneg@f1+2)
  5544  001374  CFDE F003          	movff	postinc2,(c:___flneg@f1+3)
  5545  001378  CFDE F004          	call	___flneg	;wreg free
  5546  00137C  EC60  F011         	movff	0+?___flneg,(c:___fladd@b)
  5547  001380  C001  F005         	movff	1+?___flneg,(c:___fladd@b+1)
  5548  001384  C002  F006         	movff	2+?___flneg,(c:___fladd@b+2)
  5549  001388  C003  F007         	movff	3+?___flneg,(c:___fladd@b+3)
  5550  00138C  C004  F008         	
  5551                           	call	___fladd	;wreg free
  5552  001390  ECCC  F003         	movff	0+?___fladd,(c:___fltol@f1)
  5553  001394  C005  F019         	movff	1+?___fladd,(c:___fltol@f1+1)
  5554  001398  C006  F01A         	movff	2+?___fladd,(c:___fltol@f1+2)
  5555  00139C  C007  F01B         	movff	3+?___fladd,(c:___fltol@f1+3)
  5556  0013A0  C008  F01C         	
  5557                           	call	___fltol	;wreg free
  5558  0013A4  ECAE  F00E         	bcf	status,0
  5559  0013A8  90D8               	movlb	0	; () banked
  5560  0013AA  0100               	rlcf	((compareTurnOn@i))&0ffh,w
  5561  0013AC  359E               	movwf	fsr2l
  5562  0013AE  6ED9               	rlcf	((compareTurnOn@i+1))&0ffh,w
  5563  0013B0  359F               	movwf	fsr2h
  5564  0013B2  6EDA               	movlw	low(compareTurnOn@sum)
  5565  0013B4  0E60               	addwf	fsr2l
  5566  0013B6  26D9               	movlw	high(compareTurnOn@sum)
  5567  0013B8  0E00               	addwfc	fsr2h
  5568  0013BA  22DA               	movff	0+?___fltol,postinc2
  5569  0013BC  C019  FFDE         	movff	1+?___fltol,postdec2
  5570  0013C0  C01A  FFDD         
  5571                           	goto	l1952
  5572  0013C4  EFE4  F009         	line	137
  5573                           ;main.c: 137:         }
  5574                           	
  5575                           l123:; BSR set to: 0
  5576  0013C8                     
  5577                           	line	139
  5578                           	
  5579                           l1952:; BSR set to: 0
  5580  0013C8                     
  5581                           ;main.c: 139:         acum=acum+sum[i];
  5582                           	bcf	status,0
  5583  0013C8  90D8               	rlcf	((compareTurnOn@i))&0ffh,w
  5584  0013CA  359E               	movwf	fsr2l
  5585  0013CC  6ED9               	rlcf	((compareTurnOn@i+1))&0ffh,w
  5586  0013CE  359F               	movwf	fsr2h
  5587  0013D0  6EDA               	movlw	low(compareTurnOn@sum)
  5588  0013D2  0E60               	addwf	fsr2l
  5589  0013D4  26D9               	movlw	high(compareTurnOn@sum)
  5590  0013D6  0E00               	addwfc	fsr2h
  5591  0013D8  22DA               	movff	postinc2,??_compareTurnOn+0+0
  5592  0013DA  CFDE F025          	movff	postdec2,??_compareTurnOn+0+0+1
  5593  0013DE  CFDD F026          	movf	((compareTurnOn@acum))&0ffh,w
  5594  0013E2  519C               	addwf	(??_compareTurnOn+0+0),c,w
  5595  0013E4  2425               	movwf	((compareTurnOn@acum))&0ffh
  5596  0013E6  6F9C               	movf	((compareTurnOn@acum+1))&0ffh,w
  5597  0013E8  519D               	addwfc	(??_compareTurnOn+0+1),c,w
  5598  0013EA  2026               	movwf	1+((compareTurnOn@acum))&0ffh
  5599  0013EC  6F9D               	line	140
  5600                           	
  5601                           l1954:; BSR set to: 0
  5602  0013EE                     
  5603                           ;main.c: 140:     }
  5604                           	infsnz	((compareTurnOn@i))&0ffh
  5605  0013EE  4B9E               	incf	((compareTurnOn@i+1))&0ffh
  5606  0013F0  2B9F               	
  5607                           l1956:; BSR set to: 0
  5608  0013F2                     
  5609                           	btfsc	((compareTurnOn@i+1))&0ffh,7
  5610  0013F2  BF9F               	goto	u1861
  5611  0013F4  EF05  F00A         	movf	((compareTurnOn@i+1))&0ffh,w
  5612  0013F8  519F               	bnz	u1860
  5613  0013FA  E109               	movlw	30
  5614  0013FC  0E1E               	subwf	 ((compareTurnOn@i))&0ffh,w
  5615  0013FE  5D9E               	btfss	status,0
  5616  001400  A0D8               	goto	u1861
  5617  001402  EF05  F00A         	goto	u1860
  5618  001406  EF07  F00A         
  5619                           u1861:
  5620  00140A                     	goto	l1946
  5621  00140A  EFFD  F008         u1860:
  5622  00140E                     	
  5623                           l121:; BSR set to: 0
  5624  00140E                     
  5625                           	line	142
  5626                           ;main.c: 142:     return acum;
  5627                           	movff	(compareTurnOn@acum),(c:?_compareTurnOn)
  5628  00140E  C09C  F023         	movff	(compareTurnOn@acum+1),(c:?_compareTurnOn+1)
  5629  001412  C09D  F024         	line	143
  5630                           	
  5631                           l124:; BSR set to: 0
  5632  001416                     
  5633                           	return	;funcret
  5634  001416  0012               	opt stack 0
  5635                           GLOBAL	__end_of_compareTurnOn
  5636                           	__end_of_compareTurnOn:
  5637  001418                     	signat	_compareTurnOn,90
  5638                           	global	_compareChannelUp
  5639                           
  5640 ;; *************** function _compareChannelUp *****************
  5641 ;; Defined at:
  5642 ;;		line 179 in file "main.c"
  5643 ;; Parameters:    Size  Location     Type
  5644 ;;		None
  5645 ;; Auto vars:     Size  Location     Type
  5646 ;;  i               2   66[BANK0 ] int 
  5647 ;;  sum            64    0[BANK0 ] int [32]
  5648 ;;  acum            2   64[BANK0 ] int 
  5649 ;; Return value:  Size  Location     Type
  5650 ;;                  2   34[COMRAM] int 
  5651 ;; Registers used:
  5652 ;;		wreg, fsr2l, fsr2h, status,2, status,0, cstack
  5653 ;; Tracked objects:
  5654 ;;		On entry : 0/0
  5655 ;;		On exit  : 0/0
  5656 ;;		Unchanged: 0/0
  5657 ;; Data sizes:     COMRAM   BANK0   BANK1   BANK2   BANK3   BANK4   BANK5   BANK6   BANK7
  5658 ;;      Params:         2       0       0       0       0       0       0       0       0
  5659 ;;      Locals:         0      68       0       0       0       0       0       0       0
  5660 ;;      Temps:          4       0       0       0       0       0       0       0       0
  5661 ;;      Totals:         6      68       0       0       0       0       0       0       0
  5662 ;;Total ram usage:       74 bytes
  5663 ;; Hardware stack levels used:    1
  5664 ;; Hardware stack levels required when called:    3
  5665 ;; This function calls:
  5666 ;;		___fladd
  5667 ;;		___flge
  5668 ;;		___flneg
  5669 ;;		___fltol
  5670 ;; This function is called by:
  5671 ;;		_compareSignals
  5672 ;; This function uses a non-reentrant model
  5673 ;;
  5674                           psect	text10,class=CODE,space=0,reloc=2,group=0
  5675                           	line	179
  5676                           global __ptext10
  5677                           __ptext10:
  5678  001418                     psect	text10
  5679                           	file	"main.c"
  5680                           	line	179
  5681                           	global	__size_of_compareChannelUp
  5682                           	__size_of_compareChannelUp	equ	__end_of_compareChannelUp-_compareChannelUp
  5683  0000                     	
  5684                           _compareChannelUp:; BSR set to: 0
  5685  001418                     
  5686                           ;incstack = 0
  5687                           	opt	stack 26
  5688                           	line	180
  5689                           	
  5690                           l1994:
  5691  001418                     ;main.c: 180:     int acum=0;
  5692                           	movlw	high(0)
  5693  001418  0E00               	movlb	0	; () banked
  5694  00141A  0100               	movwf	((compareChannelUp@acum+1))&0ffh
  5695  00141C  6FA1               	movlw	low(0)
  5696  00141E  0E00               	movwf	((compareChannelUp@acum))&0ffh
  5697  001420  6FA0               	line	183
  5698                           ;main.c: 181:     int sum[32];;main.c: 183:     for (int i=0;i<32;i++){
  5699                           	movlw	high(0)
  5700  001422  0E00               	movwf	((compareChannelUp@i+1))&0ffh
  5701  001424  6FA3               	movlw	low(0)
  5702  001426  0E00               	movwf	((compareChannelUp@i))&0ffh
  5703  001428  6FA2               	
  5704                           l1996:; BSR set to: 0
  5705  00142A                     
  5706                           	btfsc	((compareChannelUp@i+1))&0ffh,7
  5707  00142A  BFA3               	goto	u1931
  5708  00142C  EF21  F00A         	movf	((compareChannelUp@i+1))&0ffh,w
  5709  001430  51A3               	bnz	u1930
  5710  001432  E109               	movlw	32
  5711  001434  0E20               	subwf	 ((compareChannelUp@i))&0ffh,w
  5712  001436  5DA2               	btfss	status,0
  5713  001438  A0D8               	goto	u1931
  5714  00143A  EF21  F00A         	goto	u1930
  5715  00143E  EF23  F00A         
  5716                           u1931:
  5717  001442                     	goto	l2000
  5718  001442  EF27  F00A         u1930:
  5719  001446                     	goto	l142
  5720  001446  EF31  F00B         	
  5721                           l1998:; BSR set to: 0
  5722  00144A                     
  5723                           	goto	l142
  5724  00144A  EF31  F00B         	
  5725                           l141:; BSR set to: 0
  5726  00144E                     
  5727                           	line	184
  5728                           	
  5729                           l2000:; BSR set to: 0
  5730  00144E                     
  5731                           ;main.c: 184:         if (timerValue[i]>=channelUpCode[i]){
  5732                           	movlw	low((_timerValue))
  5733  00144E  0E00               	movwf	(??_compareChannelUp+0+0)&0ffh,c
  5734  001450  6E25               	movlw	high((_timerValue))
  5735  001452  0E01               	movwf	1+(??_compareChannelUp+0+0)&0ffh,c
  5736  001454  6E26               	bcf	status,0
  5737  001456  90D8               	rlcf	((compareChannelUp@i))&0ffh,w
  5738  001458  35A2               	movwf	fsr2l
  5739  00145A  6ED9               	rlcf	((compareChannelUp@i+1))&0ffh,w
  5740  00145C  35A3               	movwf	fsr2h
  5741  00145E  6EDA               	bcf	status,0
  5742  001460  90D8               	rlcf	fsr2l,f
  5743  001462  36D9               	rlcf	fsr2h,f
  5744  001464  36DA               	movf	(??_compareChannelUp+0+0),c,w
  5745  001466  5025               	addwf	fsr2l
  5746  001468  26D9               	movf	(??_compareChannelUp+0+1),c,w
  5747  00146A  5026               	addwfc	fsr2h
  5748  00146C  22DA               
  5749                           	movff	postinc2,(c:___flge@ff1)
  5750  00146E  CFDE F001          	movff	postinc2,(c:___flge@ff1+1)
  5751  001472  CFDE F002          	movff	postinc2,(c:___flge@ff1+2)
  5752  001476  CFDE F003          	movff	postinc2,(c:___flge@ff1+3)
  5753  00147A  CFDE F004          	movlw	low((_channelUpCode))
  5754  00147E  0E00               	movwf	(??_compareChannelUp+2+0)&0ffh,c
  5755  001480  6E27               	movlw	high((_channelUpCode))
  5756  001482  0E03               	movwf	1+(??_compareChannelUp+2+0)&0ffh,c
  5757  001484  6E28               	bcf	status,0
  5758  001486  90D8               	rlcf	((compareChannelUp@i))&0ffh,w
  5759  001488  35A2               	movwf	fsr2l
  5760  00148A  6ED9               	rlcf	((compareChannelUp@i+1))&0ffh,w
  5761  00148C  35A3               	movwf	fsr2h
  5762  00148E  6EDA               	bcf	status,0
  5763  001490  90D8               	rlcf	fsr2l,f
  5764  001492  36D9               	rlcf	fsr2h,f
  5765  001494  36DA               	movf	(??_compareChannelUp+2+0),c,w
  5766  001496  5027               	addwf	fsr2l
  5767  001498  26D9               	movf	(??_compareChannelUp+2+1),c,w
  5768  00149A  5028               	addwfc	fsr2h
  5769  00149C  22DA               
  5770                           	movff	postinc2,(c:___flge@ff2)
  5771  00149E  CFDE F005          	movff	postinc2,(c:___flge@ff2+1)
  5772  0014A2  CFDE F006          	movff	postinc2,(c:___flge@ff2+2)
  5773  0014A6  CFDE F007          	movff	postinc2,(c:___flge@ff2+3)
  5774  0014AA  CFDE F008          	call	___flge	;wreg free
  5775  0014AE  EC4E  F00D         	btfss	status,0
  5776  0014B2  A0D8               	goto	u1941
  5777  0014B4  EF5E  F00A         	goto	u1940
  5778  0014B8  EF60  F00A         u1941:
  5779  0014BC                     	goto	l2004
  5780  0014BC  EFB7  F00A         u1940:
  5781  0014C0                     	line	185
  5782                           	
  5783                           l2002:
  5784  0014C0                     ;main.c: 185:             sum[i]=timerValue[i]-channelUpCode[i];
  5785                           	movlw	low((_timerValue))
  5786  0014C0  0E00               	movwf	(??_compareChannelUp+0+0)&0ffh,c
  5787  0014C2  6E25               	movlw	high((_timerValue))
  5788  0014C4  0E01               	movwf	1+(??_compareChannelUp+0+0)&0ffh,c
  5789  0014C6  6E26               	bcf	status,0
  5790  0014C8  90D8               	movlb	0	; () banked
  5791  0014CA  0100               	rlcf	((compareChannelUp@i))&0ffh,w
  5792  0014CC  35A2               	movwf	fsr2l
  5793  0014CE  6ED9               	rlcf	((compareChannelUp@i+1))&0ffh,w
  5794  0014D0  35A3               	movwf	fsr2h
  5795  0014D2  6EDA               	bcf	status,0
  5796  0014D4  90D8               	rlcf	fsr2l,f
  5797  0014D6  36D9               	rlcf	fsr2h,f
  5798  0014D8  36DA               	movf	(??_compareChannelUp+0+0),c,w
  5799  0014DA  5025               	addwf	fsr2l
  5800  0014DC  26D9               	movf	(??_compareChannelUp+0+1),c,w
  5801  0014DE  5026               	addwfc	fsr2h
  5802  0014E0  22DA               
  5803                           	movff	postinc2,(c:___fladd@a)
  5804  0014E2  CFDE F009          	movff	postinc2,(c:___fladd@a+1)
  5805  0014E6  CFDE F00A          	movff	postinc2,(c:___fladd@a+2)
  5806  0014EA  CFDE F00B          	movff	postinc2,(c:___fladd@a+3)
  5807  0014EE  CFDE F00C          	movlw	low((_channelUpCode))
  5808  0014F2  0E00               	movwf	(??_compareChannelUp+2+0)&0ffh,c
  5809  0014F4  6E27               	movlw	high((_channelUpCode))
  5810  0014F6  0E03               	movwf	1+(??_compareChannelUp+2+0)&0ffh,c
  5811  0014F8  6E28               	bcf	status,0
  5812  0014FA  90D8               	rlcf	((compareChannelUp@i))&0ffh,w
  5813  0014FC  35A2               	movwf	fsr2l
  5814  0014FE  6ED9               	rlcf	((compareChannelUp@i+1))&0ffh,w
  5815  001500  35A3               	movwf	fsr2h
  5816  001502  6EDA               	bcf	status,0
  5817  001504  90D8               	rlcf	fsr2l,f
  5818  001506  36D9               	rlcf	fsr2h,f
  5819  001508  36DA               	movf	(??_compareChannelUp+2+0),c,w
  5820  00150A  5027               	addwf	fsr2l
  5821  00150C  26D9               	movf	(??_compareChannelUp+2+1),c,w
  5822  00150E  5028               	addwfc	fsr2h
  5823  001510  22DA               
  5824                           	movff	postinc2,(c:___flneg@f1)
  5825  001512  CFDE F001          	movff	postinc2,(c:___flneg@f1+1)
  5826  001516  CFDE F002          	movff	postinc2,(c:___flneg@f1+2)
  5827  00151A  CFDE F003          	movff	postinc2,(c:___flneg@f1+3)
  5828  00151E  CFDE F004          	call	___flneg	;wreg free
  5829  001522  EC60  F011         	movff	0+?___flneg,(c:___fladd@b)
  5830  001526  C001  F005         	movff	1+?___flneg,(c:___fladd@b+1)
  5831  00152A  C002  F006         	movff	2+?___flneg,(c:___fladd@b+2)
  5832  00152E  C003  F007         	movff	3+?___flneg,(c:___fladd@b+3)
  5833  001532  C004  F008         	
  5834                           	call	___fladd	;wreg free
  5835  001536  ECCC  F003         	movff	0+?___fladd,(c:___fltol@f1)
  5836  00153A  C005  F019         	movff	1+?___fladd,(c:___fltol@f1+1)
  5837  00153E  C006  F01A         	movff	2+?___fladd,(c:___fltol@f1+2)
  5838  001542  C007  F01B         	movff	3+?___fladd,(c:___fltol@f1+3)
  5839  001546  C008  F01C         	
  5840                           	call	___fltol	;wreg free
  5841  00154A  ECAE  F00E         	bcf	status,0
  5842  00154E  90D8               	movlb	0	; () banked
  5843  001550  0100               	rlcf	((compareChannelUp@i))&0ffh,w
  5844  001552  35A2               	movwf	fsr2l
  5845  001554  6ED9               	rlcf	((compareChannelUp@i+1))&0ffh,w
  5846  001556  35A3               	movwf	fsr2h
  5847  001558  6EDA               	movlw	low(compareChannelUp@sum)
  5848  00155A  0E60               	addwf	fsr2l
  5849  00155C  26D9               	movlw	high(compareChannelUp@sum)
  5850  00155E  0E00               	addwfc	fsr2h
  5851  001560  22DA               	movff	0+?___fltol,postinc2
  5852  001562  C019  FFDE         	movff	1+?___fltol,postdec2
  5853  001566  C01A  FFDD         
  5854                           	line	186
  5855                           ;main.c: 186:         }else{
  5856                           	goto	l2006
  5857  00156A  EF0E  F00B         	
  5858                           l143:; BSR set to: 0
  5859  00156E                     
  5860                           	line	187
  5861                           	
  5862                           l2004:
  5863  00156E                     ;main.c: 187:             sum[i]=channelUpCode[i]-timerValue[i];
  5864                           	movlw	low((_channelUpCode))
  5865  00156E  0E00               	movwf	(??_compareChannelUp+0+0)&0ffh,c
  5866  001570  6E25               	movlw	high((_channelUpCode))
  5867  001572  0E03               	movwf	1+(??_compareChannelUp+0+0)&0ffh,c
  5868  001574  6E26               	bcf	status,0
  5869  001576  90D8               	movlb	0	; () banked
  5870  001578  0100               	rlcf	((compareChannelUp@i))&0ffh,w
  5871  00157A  35A2               	movwf	fsr2l
  5872  00157C  6ED9               	rlcf	((compareChannelUp@i+1))&0ffh,w
  5873  00157E  35A3               	movwf	fsr2h
  5874  001580  6EDA               	bcf	status,0
  5875  001582  90D8               	rlcf	fsr2l,f
  5876  001584  36D9               	rlcf	fsr2h,f
  5877  001586  36DA               	movf	(??_compareChannelUp+0+0),c,w
  5878  001588  5025               	addwf	fsr2l
  5879  00158A  26D9               	movf	(??_compareChannelUp+0+1),c,w
  5880  00158C  5026               	addwfc	fsr2h
  5881  00158E  22DA               
  5882                           	movff	postinc2,(c:___fladd@a)
  5883  001590  CFDE F009          	movff	postinc2,(c:___fladd@a+1)
  5884  001594  CFDE F00A          	movff	postinc2,(c:___fladd@a+2)
  5885  001598  CFDE F00B          	movff	postinc2,(c:___fladd@a+3)
  5886  00159C  CFDE F00C          	movlw	low((_timerValue))
  5887  0015A0  0E00               	movwf	(??_compareChannelUp+2+0)&0ffh,c
  5888  0015A2  6E27               	movlw	high((_timerValue))
  5889  0015A4  0E01               	movwf	1+(??_compareChannelUp+2+0)&0ffh,c
  5890  0015A6  6E28               	bcf	status,0
  5891  0015A8  90D8               	rlcf	((compareChannelUp@i))&0ffh,w
  5892  0015AA  35A2               	movwf	fsr2l
  5893  0015AC  6ED9               	rlcf	((compareChannelUp@i+1))&0ffh,w
  5894  0015AE  35A3               	movwf	fsr2h
  5895  0015B0  6EDA               	bcf	status,0
  5896  0015B2  90D8               	rlcf	fsr2l,f
  5897  0015B4  36D9               	rlcf	fsr2h,f
  5898  0015B6  36DA               	movf	(??_compareChannelUp+2+0),c,w
  5899  0015B8  5027               	addwf	fsr2l
  5900  0015BA  26D9               	movf	(??_compareChannelUp+2+1),c,w
  5901  0015BC  5028               	addwfc	fsr2h
  5902  0015BE  22DA               
  5903                           	movff	postinc2,(c:___flneg@f1)
  5904  0015C0  CFDE F001          	movff	postinc2,(c:___flneg@f1+1)
  5905  0015C4  CFDE F002          	movff	postinc2,(c:___flneg@f1+2)
  5906  0015C8  CFDE F003          	movff	postinc2,(c:___flneg@f1+3)
  5907  0015CC  CFDE F004          	call	___flneg	;wreg free
  5908  0015D0  EC60  F011         	movff	0+?___flneg,(c:___fladd@b)
  5909  0015D4  C001  F005         	movff	1+?___flneg,(c:___fladd@b+1)
  5910  0015D8  C002  F006         	movff	2+?___flneg,(c:___fladd@b+2)
  5911  0015DC  C003  F007         	movff	3+?___flneg,(c:___fladd@b+3)
  5912  0015E0  C004  F008         	
  5913                           	call	___fladd	;wreg free
  5914  0015E4  ECCC  F003         	movff	0+?___fladd,(c:___fltol@f1)
  5915  0015E8  C005  F019         	movff	1+?___fladd,(c:___fltol@f1+1)
  5916  0015EC  C006  F01A         	movff	2+?___fladd,(c:___fltol@f1+2)
  5917  0015F0  C007  F01B         	movff	3+?___fladd,(c:___fltol@f1+3)
  5918  0015F4  C008  F01C         	
  5919                           	call	___fltol	;wreg free
  5920  0015F8  ECAE  F00E         	bcf	status,0
  5921  0015FC  90D8               	movlb	0	; () banked
  5922  0015FE  0100               	rlcf	((compareChannelUp@i))&0ffh,w
  5923  001600  35A2               	movwf	fsr2l
  5924  001602  6ED9               	rlcf	((compareChannelUp@i+1))&0ffh,w
  5925  001604  35A3               	movwf	fsr2h
  5926  001606  6EDA               	movlw	low(compareChannelUp@sum)
  5927  001608  0E60               	addwf	fsr2l
  5928  00160A  26D9               	movlw	high(compareChannelUp@sum)
  5929  00160C  0E00               	addwfc	fsr2h
  5930  00160E  22DA               	movff	0+?___fltol,postinc2
  5931  001610  C019  FFDE         	movff	1+?___fltol,postdec2
  5932  001614  C01A  FFDD         
  5933                           	goto	l2006
  5934  001618  EF0E  F00B         	line	188
  5935                           ;main.c: 188:         }
  5936                           	
  5937                           l144:; BSR set to: 0
  5938  00161C                     
  5939                           	line	190
  5940                           	
  5941                           l2006:; BSR set to: 0
  5942  00161C                     
  5943                           ;main.c: 190:         acum=acum+sum[i];
  5944                           	bcf	status,0
  5945  00161C  90D8               	rlcf	((compareChannelUp@i))&0ffh,w
  5946  00161E  35A2               	movwf	fsr2l
  5947  001620  6ED9               	rlcf	((compareChannelUp@i+1))&0ffh,w
  5948  001622  35A3               	movwf	fsr2h
  5949  001624  6EDA               	movlw	low(compareChannelUp@sum)
  5950  001626  0E60               	addwf	fsr2l
  5951  001628  26D9               	movlw	high(compareChannelUp@sum)
  5952  00162A  0E00               	addwfc	fsr2h
  5953  00162C  22DA               	movff	postinc2,??_compareChannelUp+0+0
  5954  00162E  CFDE F025          	movff	postdec2,??_compareChannelUp+0+0+1
  5955  001632  CFDD F026          	movf	((compareChannelUp@acum))&0ffh,w
  5956  001636  51A0               	addwf	(??_compareChannelUp+0+0),c,w
  5957  001638  2425               	movwf	((compareChannelUp@acum))&0ffh
  5958  00163A  6FA0               	movf	((compareChannelUp@acum+1))&0ffh,w
  5959  00163C  51A1               	addwfc	(??_compareChannelUp+0+1),c,w
  5960  00163E  2026               	movwf	1+((compareChannelUp@acum))&0ffh
  5961  001640  6FA1               	line	191
  5962                           	
  5963                           l2008:; BSR set to: 0
  5964  001642                     
  5965                           ;main.c: 191:     }
  5966                           	infsnz	((compareChannelUp@i))&0ffh
  5967  001642  4BA2               	incf	((compareChannelUp@i+1))&0ffh
  5968  001644  2BA3               	
  5969                           l2010:; BSR set to: 0
  5970  001646                     
  5971                           	btfsc	((compareChannelUp@i+1))&0ffh,7
  5972  001646  BFA3               	goto	u1951
  5973  001648  EF2F  F00B         	movf	((compareChannelUp@i+1))&0ffh,w
  5974  00164C  51A3               	bnz	u1950
  5975  00164E  E109               	movlw	32
  5976  001650  0E20               	subwf	 ((compareChannelUp@i))&0ffh,w
  5977  001652  5DA2               	btfss	status,0
  5978  001654  A0D8               	goto	u1951
  5979  001656  EF2F  F00B         	goto	u1950
  5980  00165A  EF31  F00B         
  5981                           u1951:
  5982  00165E                     	goto	l2000
  5983  00165E  EF27  F00A         u1950:
  5984  001662                     	
  5985                           l142:; BSR set to: 0
  5986  001662                     
  5987                           	line	193
  5988                           ;main.c: 193:     return acum;
  5989                           	movff	(compareChannelUp@acum),(c:?_compareChannelUp)
  5990  001662  C0A0  F023         	movff	(compareChannelUp@acum+1),(c:?_compareChannelUp+1)
  5991  001666  C0A1  F024         	line	194
  5992                           	
  5993                           l145:; BSR set to: 0
  5994  00166A                     
  5995                           	return	;funcret
  5996  00166A  0012               	opt stack 0
  5997                           GLOBAL	__end_of_compareChannelUp
  5998                           	__end_of_compareChannelUp:
  5999  00166C                     	signat	_compareChannelUp,90
  6000                           	global	_compareChannelDown
  6001                           
  6002 ;; *************** function _compareChannelDown *****************
  6003 ;; Defined at:
  6004 ;;		line 196 in file "main.c"
  6005 ;; Parameters:    Size  Location     Type
  6006 ;;		None
  6007 ;; Auto vars:     Size  Location     Type
  6008 ;;  i               2   66[BANK0 ] int 
  6009 ;;  sum            64    0[BANK0 ] int [32]
  6010 ;;  acum            2   64[BANK0 ] int 
  6011 ;; Return value:  Size  Location     Type
  6012 ;;                  2   34[COMRAM] int 
  6013 ;; Registers used:
  6014 ;;		wreg, fsr2l, fsr2h, status,2, status,0, cstack
  6015 ;; Tracked objects:
  6016 ;;		On entry : 0/0
  6017 ;;		On exit  : 0/0
  6018 ;;		Unchanged: 0/0
  6019 ;; Data sizes:     COMRAM   BANK0   BANK1   BANK2   BANK3   BANK4   BANK5   BANK6   BANK7
  6020 ;;      Params:         2       0       0       0       0       0       0       0       0
  6021 ;;      Locals:         0      68       0       0       0       0       0       0       0
  6022 ;;      Temps:          4       0       0       0       0       0       0       0       0
  6023 ;;      Totals:         6      68       0       0       0       0       0       0       0
  6024 ;;Total ram usage:       74 bytes
  6025 ;; Hardware stack levels used:    1
  6026 ;; Hardware stack levels required when called:    3
  6027 ;; This function calls:
  6028 ;;		___fladd
  6029 ;;		___flge
  6030 ;;		___flneg
  6031 ;;		___fltol
  6032 ;; This function is called by:
  6033 ;;		_compareSignals
  6034 ;; This function uses a non-reentrant model
  6035 ;;
  6036                           psect	text11,class=CODE,space=0,reloc=2,group=0
  6037                           	line	196
  6038                           global __ptext11
  6039                           __ptext11:
  6040  00166C                     psect	text11
  6041                           	file	"main.c"
  6042                           	line	196
  6043                           	global	__size_of_compareChannelDown
  6044                           	__size_of_compareChannelDown	equ	__end_of_compareChannelDown-_compareChannelDown
  6045  0000                     	
  6046                           _compareChannelDown:; BSR set to: 0
  6047  00166C                     
  6048                           ;incstack = 0
  6049                           	opt	stack 26
  6050                           	line	197
  6051                           	
  6052                           l2012:
  6053  00166C                     ;main.c: 197:     int acum=0;
  6054                           	movlw	high(0)
  6055  00166C  0E00               	movlb	0	; () banked
  6056  00166E  0100               	movwf	((compareChannelDown@acum+1))&0ffh
  6057  001670  6FA1               	movlw	low(0)
  6058  001672  0E00               	movwf	((compareChannelDown@acum))&0ffh
  6059  001674  6FA0               	line	200
  6060                           ;main.c: 198:     int sum[32];;main.c: 200:     for (int i=0;i<32;i++){
  6061                           	movlw	high(0)
  6062  001676  0E00               	movwf	((compareChannelDown@i+1))&0ffh
  6063  001678  6FA3               	movlw	low(0)
  6064  00167A  0E00               	movwf	((compareChannelDown@i))&0ffh
  6065  00167C  6FA2               	
  6066                           l2014:; BSR set to: 0
  6067  00167E                     
  6068                           	btfsc	((compareChannelDown@i+1))&0ffh,7
  6069  00167E  BFA3               	goto	u1961
  6070  001680  EF4B  F00B         	movf	((compareChannelDown@i+1))&0ffh,w
  6071  001684  51A3               	bnz	u1960
  6072  001686  E109               	movlw	32
  6073  001688  0E20               	subwf	 ((compareChannelDown@i))&0ffh,w
  6074  00168A  5DA2               	btfss	status,0
  6075  00168C  A0D8               	goto	u1961
  6076  00168E  EF4B  F00B         	goto	u1960
  6077  001692  EF4D  F00B         
  6078                           u1961:
  6079  001696                     	goto	l2018
  6080  001696  EF51  F00B         u1960:
  6081  00169A                     	goto	l149
  6082  00169A  EF5B  F00C         	
  6083                           l2016:; BSR set to: 0
  6084  00169E                     
  6085                           	goto	l149
  6086  00169E  EF5B  F00C         	
  6087                           l148:; BSR set to: 0
  6088  0016A2                     
  6089                           	line	201
  6090                           	
  6091                           l2018:; BSR set to: 0
  6092  0016A2                     
  6093                           ;main.c: 201:         if (timerValue[i]>=channelDownCode[i]){
  6094                           	movlw	low((_timerValue))
  6095  0016A2  0E00               	movwf	(??_compareChannelDown+0+0)&0ffh,c
  6096  0016A4  6E25               	movlw	high((_timerValue))
  6097  0016A6  0E01               	movwf	1+(??_compareChannelDown+0+0)&0ffh,c
  6098  0016A8  6E26               	bcf	status,0
  6099  0016AA  90D8               	rlcf	((compareChannelDown@i))&0ffh,w
  6100  0016AC  35A2               	movwf	fsr2l
  6101  0016AE  6ED9               	rlcf	((compareChannelDown@i+1))&0ffh,w
  6102  0016B0  35A3               	movwf	fsr2h
  6103  0016B2  6EDA               	bcf	status,0
  6104  0016B4  90D8               	rlcf	fsr2l,f
  6105  0016B6  36D9               	rlcf	fsr2h,f
  6106  0016B8  36DA               	movf	(??_compareChannelDown+0+0),c,w
  6107  0016BA  5025               	addwf	fsr2l
  6108  0016BC  26D9               	movf	(??_compareChannelDown+0+1),c,w
  6109  0016BE  5026               	addwfc	fsr2h
  6110  0016C0  22DA               
  6111                           	movff	postinc2,(c:___flge@ff1)
  6112  0016C2  CFDE F001          	movff	postinc2,(c:___flge@ff1+1)
  6113  0016C6  CFDE F002          	movff	postinc2,(c:___flge@ff1+2)
  6114  0016CA  CFDE F003          	movff	postinc2,(c:___flge@ff1+3)
  6115  0016CE  CFDE F004          	movlw	low((_channelDownCode))
  6116  0016D2  0E00               	movwf	(??_compareChannelDown+2+0)&0ffh,c
  6117  0016D4  6E27               	movlw	high((_channelDownCode))
  6118  0016D6  0E04               	movwf	1+(??_compareChannelDown+2+0)&0ffh,c
  6119  0016D8  6E28               	bcf	status,0
  6120  0016DA  90D8               	rlcf	((compareChannelDown@i))&0ffh,w
  6121  0016DC  35A2               	movwf	fsr2l
  6122  0016DE  6ED9               	rlcf	((compareChannelDown@i+1))&0ffh,w
  6123  0016E0  35A3               	movwf	fsr2h
  6124  0016E2  6EDA               	bcf	status,0
  6125  0016E4  90D8               	rlcf	fsr2l,f
  6126  0016E6  36D9               	rlcf	fsr2h,f
  6127  0016E8  36DA               	movf	(??_compareChannelDown+2+0),c,w
  6128  0016EA  5027               	addwf	fsr2l
  6129  0016EC  26D9               	movf	(??_compareChannelDown+2+1),c,w
  6130  0016EE  5028               	addwfc	fsr2h
  6131  0016F0  22DA               
  6132                           	movff	postinc2,(c:___flge@ff2)
  6133  0016F2  CFDE F005          	movff	postinc2,(c:___flge@ff2+1)
  6134  0016F6  CFDE F006          	movff	postinc2,(c:___flge@ff2+2)
  6135  0016FA  CFDE F007          	movff	postinc2,(c:___flge@ff2+3)
  6136  0016FE  CFDE F008          	call	___flge	;wreg free
  6137  001702  EC4E  F00D         	btfss	status,0
  6138  001706  A0D8               	goto	u1971
  6139  001708  EF88  F00B         	goto	u1970
  6140  00170C  EF8A  F00B         u1971:
  6141  001710                     	goto	l2022
  6142  001710  EFE1  F00B         u1970:
  6143  001714                     	line	202
  6144                           	
  6145                           l2020:
  6146  001714                     ;main.c: 202:             sum[i]=timerValue[i]-channelDownCode[i];
  6147                           	movlw	low((_timerValue))
  6148  001714  0E00               	movwf	(??_compareChannelDown+0+0)&0ffh,c
  6149  001716  6E25               	movlw	high((_timerValue))
  6150  001718  0E01               	movwf	1+(??_compareChannelDown+0+0)&0ffh,c
  6151  00171A  6E26               	bcf	status,0
  6152  00171C  90D8               	movlb	0	; () banked
  6153  00171E  0100               	rlcf	((compareChannelDown@i))&0ffh,w
  6154  001720  35A2               	movwf	fsr2l
  6155  001722  6ED9               	rlcf	((compareChannelDown@i+1))&0ffh,w
  6156  001724  35A3               	movwf	fsr2h
  6157  001726  6EDA               	bcf	status,0
  6158  001728  90D8               	rlcf	fsr2l,f
  6159  00172A  36D9               	rlcf	fsr2h,f
  6160  00172C  36DA               	movf	(??_compareChannelDown+0+0),c,w
  6161  00172E  5025               	addwf	fsr2l
  6162  001730  26D9               	movf	(??_compareChannelDown+0+1),c,w
  6163  001732  5026               	addwfc	fsr2h
  6164  001734  22DA               
  6165                           	movff	postinc2,(c:___fladd@a)
  6166  001736  CFDE F009          	movff	postinc2,(c:___fladd@a+1)
  6167  00173A  CFDE F00A          	movff	postinc2,(c:___fladd@a+2)
  6168  00173E  CFDE F00B          	movff	postinc2,(c:___fladd@a+3)
  6169  001742  CFDE F00C          	movlw	low((_channelDownCode))
  6170  001746  0E00               	movwf	(??_compareChannelDown+2+0)&0ffh,c
  6171  001748  6E27               	movlw	high((_channelDownCode))
  6172  00174A  0E04               	movwf	1+(??_compareChannelDown+2+0)&0ffh,c
  6173  00174C  6E28               	bcf	status,0
  6174  00174E  90D8               	rlcf	((compareChannelDown@i))&0ffh,w
  6175  001750  35A2               	movwf	fsr2l
  6176  001752  6ED9               	rlcf	((compareChannelDown@i+1))&0ffh,w
  6177  001754  35A3               	movwf	fsr2h
  6178  001756  6EDA               	bcf	status,0
  6179  001758  90D8               	rlcf	fsr2l,f
  6180  00175A  36D9               	rlcf	fsr2h,f
  6181  00175C  36DA               	movf	(??_compareChannelDown+2+0),c,w
  6182  00175E  5027               	addwf	fsr2l
  6183  001760  26D9               	movf	(??_compareChannelDown+2+1),c,w
  6184  001762  5028               	addwfc	fsr2h
  6185  001764  22DA               
  6186                           	movff	postinc2,(c:___flneg@f1)
  6187  001766  CFDE F001          	movff	postinc2,(c:___flneg@f1+1)
  6188  00176A  CFDE F002          	movff	postinc2,(c:___flneg@f1+2)
  6189  00176E  CFDE F003          	movff	postinc2,(c:___flneg@f1+3)
  6190  001772  CFDE F004          	call	___flneg	;wreg free
  6191  001776  EC60  F011         	movff	0+?___flneg,(c:___fladd@b)
  6192  00177A  C001  F005         	movff	1+?___flneg,(c:___fladd@b+1)
  6193  00177E  C002  F006         	movff	2+?___flneg,(c:___fladd@b+2)
  6194  001782  C003  F007         	movff	3+?___flneg,(c:___fladd@b+3)
  6195  001786  C004  F008         	
  6196                           	call	___fladd	;wreg free
  6197  00178A  ECCC  F003         	movff	0+?___fladd,(c:___fltol@f1)
  6198  00178E  C005  F019         	movff	1+?___fladd,(c:___fltol@f1+1)
  6199  001792  C006  F01A         	movff	2+?___fladd,(c:___fltol@f1+2)
  6200  001796  C007  F01B         	movff	3+?___fladd,(c:___fltol@f1+3)
  6201  00179A  C008  F01C         	
  6202                           	call	___fltol	;wreg free
  6203  00179E  ECAE  F00E         	bcf	status,0
  6204  0017A2  90D8               	movlb	0	; () banked
  6205  0017A4  0100               	rlcf	((compareChannelDown@i))&0ffh,w
  6206  0017A6  35A2               	movwf	fsr2l
  6207  0017A8  6ED9               	rlcf	((compareChannelDown@i+1))&0ffh,w
  6208  0017AA  35A3               	movwf	fsr2h
  6209  0017AC  6EDA               	movlw	low(compareChannelDown@sum)
  6210  0017AE  0E60               	addwf	fsr2l
  6211  0017B0  26D9               	movlw	high(compareChannelDown@sum)
  6212  0017B2  0E00               	addwfc	fsr2h
  6213  0017B4  22DA               	movff	0+?___fltol,postinc2
  6214  0017B6  C019  FFDE         	movff	1+?___fltol,postdec2
  6215  0017BA  C01A  FFDD         
  6216                           	line	203
  6217                           ;main.c: 203:         }else{
  6218                           	goto	l2024
  6219  0017BE  EF38  F00C         	
  6220                           l150:; BSR set to: 0
  6221  0017C2                     
  6222                           	line	204
  6223                           	
  6224                           l2022:
  6225  0017C2                     ;main.c: 204:             sum[i]=channelDownCode[i]-timerValue[i];
  6226                           	movlw	low((_channelDownCode))
  6227  0017C2  0E00               	movwf	(??_compareChannelDown+0+0)&0ffh,c
  6228  0017C4  6E25               	movlw	high((_channelDownCode))
  6229  0017C6  0E04               	movwf	1+(??_compareChannelDown+0+0)&0ffh,c
  6230  0017C8  6E26               	bcf	status,0
  6231  0017CA  90D8               	movlb	0	; () banked
  6232  0017CC  0100               	rlcf	((compareChannelDown@i))&0ffh,w
  6233  0017CE  35A2               	movwf	fsr2l
  6234  0017D0  6ED9               	rlcf	((compareChannelDown@i+1))&0ffh,w
  6235  0017D2  35A3               	movwf	fsr2h
  6236  0017D4  6EDA               	bcf	status,0
  6237  0017D6  90D8               	rlcf	fsr2l,f
  6238  0017D8  36D9               	rlcf	fsr2h,f
  6239  0017DA  36DA               	movf	(??_compareChannelDown+0+0),c,w
  6240  0017DC  5025               	addwf	fsr2l
  6241  0017DE  26D9               	movf	(??_compareChannelDown+0+1),c,w
  6242  0017E0  5026               	addwfc	fsr2h
  6243  0017E2  22DA               
  6244                           	movff	postinc2,(c:___fladd@a)
  6245  0017E4  CFDE F009          	movff	postinc2,(c:___fladd@a+1)
  6246  0017E8  CFDE F00A          	movff	postinc2,(c:___fladd@a+2)
  6247  0017EC  CFDE F00B          	movff	postinc2,(c:___fladd@a+3)
  6248  0017F0  CFDE F00C          	movlw	low((_timerValue))
  6249  0017F4  0E00               	movwf	(??_compareChannelDown+2+0)&0ffh,c
  6250  0017F6  6E27               	movlw	high((_timerValue))
  6251  0017F8  0E01               	movwf	1+(??_compareChannelDown+2+0)&0ffh,c
  6252  0017FA  6E28               	bcf	status,0
  6253  0017FC  90D8               	rlcf	((compareChannelDown@i))&0ffh,w
  6254  0017FE  35A2               	movwf	fsr2l
  6255  001800  6ED9               	rlcf	((compareChannelDown@i+1))&0ffh,w
  6256  001802  35A3               	movwf	fsr2h
  6257  001804  6EDA               	bcf	status,0
  6258  001806  90D8               	rlcf	fsr2l,f
  6259  001808  36D9               	rlcf	fsr2h,f
  6260  00180A  36DA               	movf	(??_compareChannelDown+2+0),c,w
  6261  00180C  5027               	addwf	fsr2l
  6262  00180E  26D9               	movf	(??_compareChannelDown+2+1),c,w
  6263  001810  5028               	addwfc	fsr2h
  6264  001812  22DA               
  6265                           	movff	postinc2,(c:___flneg@f1)
  6266  001814  CFDE F001          	movff	postinc2,(c:___flneg@f1+1)
  6267  001818  CFDE F002          	movff	postinc2,(c:___flneg@f1+2)
  6268  00181C  CFDE F003          	movff	postinc2,(c:___flneg@f1+3)
  6269  001820  CFDE F004          	call	___flneg	;wreg free
  6270  001824  EC60  F011         	movff	0+?___flneg,(c:___fladd@b)
  6271  001828  C001  F005         	movff	1+?___flneg,(c:___fladd@b+1)
  6272  00182C  C002  F006         	movff	2+?___flneg,(c:___fladd@b+2)
  6273  001830  C003  F007         	movff	3+?___flneg,(c:___fladd@b+3)
  6274  001834  C004  F008         	
  6275                           	call	___fladd	;wreg free
  6276  001838  ECCC  F003         	movff	0+?___fladd,(c:___fltol@f1)
  6277  00183C  C005  F019         	movff	1+?___fladd,(c:___fltol@f1+1)
  6278  001840  C006  F01A         	movff	2+?___fladd,(c:___fltol@f1+2)
  6279  001844  C007  F01B         	movff	3+?___fladd,(c:___fltol@f1+3)
  6280  001848  C008  F01C         	
  6281                           	call	___fltol	;wreg free
  6282  00184C  ECAE  F00E         	bcf	status,0
  6283  001850  90D8               	movlb	0	; () banked
  6284  001852  0100               	rlcf	((compareChannelDown@i))&0ffh,w
  6285  001854  35A2               	movwf	fsr2l
  6286  001856  6ED9               	rlcf	((compareChannelDown@i+1))&0ffh,w
  6287  001858  35A3               	movwf	fsr2h
  6288  00185A  6EDA               	movlw	low(compareChannelDown@sum)
  6289  00185C  0E60               	addwf	fsr2l
  6290  00185E  26D9               	movlw	high(compareChannelDown@sum)
  6291  001860  0E00               	addwfc	fsr2h
  6292  001862  22DA               	movff	0+?___fltol,postinc2
  6293  001864  C019  FFDE         	movff	1+?___fltol,postdec2
  6294  001868  C01A  FFDD         
  6295                           	goto	l2024
  6296  00186C  EF38  F00C         	line	205
  6297                           ;main.c: 205:         }
  6298                           	
  6299                           l151:; BSR set to: 0
  6300  001870                     
  6301                           	line	207
  6302                           	
  6303                           l2024:; BSR set to: 0
  6304  001870                     
  6305                           ;main.c: 207:         acum=acum+sum[i];
  6306                           	bcf	status,0
  6307  001870  90D8               	rlcf	((compareChannelDown@i))&0ffh,w
  6308  001872  35A2               	movwf	fsr2l
  6309  001874  6ED9               	rlcf	((compareChannelDown@i+1))&0ffh,w
  6310  001876  35A3               	movwf	fsr2h
  6311  001878  6EDA               	movlw	low(compareChannelDown@sum)
  6312  00187A  0E60               	addwf	fsr2l
  6313  00187C  26D9               	movlw	high(compareChannelDown@sum)
  6314  00187E  0E00               	addwfc	fsr2h
  6315  001880  22DA               	movff	postinc2,??_compareChannelDown+0+0
  6316  001882  CFDE F025          	movff	postdec2,??_compareChannelDown+0+0+1
  6317  001886  CFDD F026          	movf	((compareChannelDown@acum))&0ffh,w
  6318  00188A  51A0               	addwf	(??_compareChannelDown+0+0),c,w
  6319  00188C  2425               	movwf	((compareChannelDown@acum))&0ffh
  6320  00188E  6FA0               	movf	((compareChannelDown@acum+1))&0ffh,w
  6321  001890  51A1               	addwfc	(??_compareChannelDown+0+1),c,w
  6322  001892  2026               	movwf	1+((compareChannelDown@acum))&0ffh
  6323  001894  6FA1               	line	208
  6324                           	
  6325                           l2026:; BSR set to: 0
  6326  001896                     
  6327                           ;main.c: 208:     }
  6328                           	infsnz	((compareChannelDown@i))&0ffh
  6329  001896  4BA2               	incf	((compareChannelDown@i+1))&0ffh
  6330  001898  2BA3               	
  6331                           l2028:; BSR set to: 0
  6332  00189A                     
  6333                           	btfsc	((compareChannelDown@i+1))&0ffh,7
  6334  00189A  BFA3               	goto	u1981
  6335  00189C  EF59  F00C         	movf	((compareChannelDown@i+1))&0ffh,w
  6336  0018A0  51A3               	bnz	u1980
  6337  0018A2  E109               	movlw	32
  6338  0018A4  0E20               	subwf	 ((compareChannelDown@i))&0ffh,w
  6339  0018A6  5DA2               	btfss	status,0
  6340  0018A8  A0D8               	goto	u1981
  6341  0018AA  EF59  F00C         	goto	u1980
  6342  0018AE  EF5B  F00C         
  6343                           u1981:
  6344  0018B2                     	goto	l2018
  6345  0018B2  EF51  F00B         u1980:
  6346  0018B6                     	
  6347                           l149:; BSR set to: 0
  6348  0018B6                     
  6349                           	line	210
  6350                           ;main.c: 210:     return acum;
  6351                           	movff	(compareChannelDown@acum),(c:?_compareChannelDown)
  6352  0018B6  C0A0  F023         	movff	(compareChannelDown@acum+1),(c:?_compareChannelDown+1)
  6353  0018BA  C0A1  F024         	line	211
  6354                           	
  6355                           l152:; BSR set to: 0
  6356  0018BE                     
  6357                           	return	;funcret
  6358  0018BE  0012               	opt stack 0
  6359                           GLOBAL	__end_of_compareChannelDown
  6360                           	__end_of_compareChannelDown:
  6361  0018C0                     	signat	_compareChannelDown,90
  6362                           	global	___fltol
  6363                           
  6364 ;; *************** function ___fltol *****************
  6365 ;; Defined at:
  6366 ;;		line 43 in file "C:\Program Files (x86)\Microchip\xc8\v2.00\pic\sources\c99\common\fltol.c"
  6367 ;; Parameters:    Size  Location     Type
  6368 ;;  f1              4   24[COMRAM] int 
  6369 ;; Auto vars:     Size  Location     Type
  6370 ;;  exp1            1   33[COMRAM] unsigned char 
  6371 ;;  sign1           1   32[COMRAM] unsigned char 
  6372 ;; Return value:  Size  Location     Type
  6373 ;;                  4   24[COMRAM] long 
  6374 ;; Registers used:
  6375 ;;		wreg, status,2, status,0
  6376 ;; Tracked objects:
  6377 ;;		On entry : 0/0
  6378 ;;		On exit  : 0/0
  6379 ;;		Unchanged: 0/0
  6380 ;; Data sizes:     COMRAM   BANK0   BANK1   BANK2   BANK3   BANK4   BANK5   BANK6   BANK7
  6381 ;;      Params:         4       0       0       0       0       0       0       0       0
  6382 ;;      Locals:         2       0       0       0       0       0       0       0       0
  6383 ;;      Temps:          4       0       0       0       0       0       0       0       0
  6384 ;;      Totals:        10       0       0       0       0       0       0       0       0
  6385 ;;Total ram usage:       10 bytes
  6386 ;; Hardware stack levels used:    1
  6387 ;; Hardware stack levels required when called:    2
  6388 ;; This function calls:
  6389 ;;		Nothing
  6390 ;; This function is called by:
  6391 ;;		_compareTurnOn
  6392 ;;		_compareVolumeUp
  6393 ;;		_compareVolumeDown
  6394 ;;		_compareChannelUp
  6395 ;;		_compareChannelDown
  6396 ;; This function uses a non-reentrant model
  6397 ;;
  6398                           psect	text12,class=CODE,space=0,reloc=2,group=1
  6399                           	file	"C:\Program Files (x86)\Microchip\xc8\v2.00\pic\sources\c99\common\fltol.c"
  6400                           	line	43
  6401                           global __ptext12
  6402                           __ptext12:
  6403  001D5C                     psect	text12
  6404                           	file	"C:\Program Files (x86)\Microchip\xc8\v2.00\pic\sources\c99\common\fltol.c"
  6405                           	line	43
  6406                           	global	__size_of___fltol
  6407                           	__size_of___fltol	equ	__end_of___fltol-___fltol
  6408  0000                     	
  6409                           ___fltol:; BSR set to: 0
  6410  001D5C                     
  6411                           ;incstack = 0
  6412                           	opt	stack 26
  6413                           	line	47
  6414                           	
  6415                           l1896:
  6416  001D5C                     	rlcf	((c:___fltol@f1+2)),c,w
  6417  001D5C  341B               	rlcf	((c:___fltol@f1+3)),c,w
  6418  001D5E  341C               	movwf	((c:___fltol@exp1)),c
  6419  001D60  6E22               	movf	((c:___fltol@exp1)),c,w
  6420  001D62  5022               	btfss	status,2
  6421  001D64  A4D8               	goto	u1771
  6422  001D66  EFB7  F00E         	goto	u1770
  6423  001D6A  EFB9  F00E         u1771:
  6424  001D6E                     	goto	l1902
  6425  001D6E  EFC5  F00E         u1770:
  6426  001D72                     	line	48
  6427                           	
  6428                           l1898:
  6429  001D72                     	movlw	low(0)
  6430  001D72  0E00               	movwf	((c:?___fltol)),c
  6431  001D74  6E19               	movlw	high(0)
  6432  001D76  0E00               	movwf	((c:?___fltol+1)),c
  6433  001D78  6E1A               	movlw	low highword(0)
  6434  001D7A  0E00               	movwf	((c:?___fltol+2)),c
  6435  001D7C  6E1B               	movlw	high highword(0)
  6436  001D7E  0E00               	movwf	((c:?___fltol+3)),c
  6437  001D80  6E1C               	goto	l516
  6438  001D82  EF56  F00F         	
  6439                           l1900:
  6440  001D86                     	goto	l516
  6441  001D86  EF56  F00F         	
  6442                           l515:
  6443  001D8A                     	line	49
  6444                           	
  6445                           l1902:
  6446  001D8A                     	movff	(c:___fltol@f1),??___fltol+0+0
  6447  001D8A  C019  F01D         	movff	(c:___fltol@f1+1),??___fltol+0+0+1
  6448  001D8E  C01A  F01E         	movff	(c:___fltol@f1+2),??___fltol+0+0+2
  6449  001D92  C01B  F01F         	movff	(c:___fltol@f1+3),??___fltol+0+0+3
  6450  001D96  C01C  F020         	movlw	01Fh+1
  6451  001D9A  0E20               	goto	u1780
  6452  001D9C  EFD5  F00E         u1785:
  6453  001DA0                     	bcf	status,0
  6454  001DA0  90D8               	rrcf	(??___fltol+0+3),c
  6455  001DA2  3220               	rrcf	(??___fltol+0+2),c
  6456  001DA4  321F               	rrcf	(??___fltol+0+1),c
  6457  001DA6  321E               	rrcf	(??___fltol+0+0),c
  6458  001DA8  321D               u1780:
  6459  001DAA                     	decfsz	wreg
  6460  001DAA  2EE8               	goto	u1785
  6461  001DAC  EFD0  F00E         	movf	(??___fltol+0+0),c,w
  6462  001DB0  501D               	movwf	((c:___fltol@sign1)),c
  6463  001DB2  6E21               	line	50
  6464                           	
  6465                           l1904:
  6466  001DB4                     	bsf	(0+(23/8)+(c:___fltol@f1)),c,(23)&7
  6467  001DB4  8E1B               	line	51
  6468                           	
  6469                           l1906:
  6470  001DB6                     	movlw	0FFh
  6471  001DB6  0EFF               	andwf	((c:___fltol@f1)),c
  6472  001DB8  1619               	movlw	0FFh
  6473  001DBA  0EFF               	andwf	((c:___fltol@f1+1)),c
  6474  001DBC  161A               	movlw	0FFh
  6475  001DBE  0EFF               	andwf	((c:___fltol@f1+2)),c
  6476  001DC0  161B               	movlw	0
  6477  001DC2  0E00               	andwf	((c:___fltol@f1+3)),c
  6478  001DC4  161C               	line	52
  6479                           	
  6480                           l1908:
  6481  001DC6                     	movlw	(096h)&0ffh
  6482  001DC6  0E96               	subwf	((c:___fltol@exp1)),c
  6483  001DC8  5E22               	line	53
  6484                           	
  6485                           l1910:
  6486  001DCA                     	btfsc	((c:___fltol@exp1)),c,7
  6487  001DCA  BE22               	goto	u1790
  6488  001DCC  EFEC  F00E         	goto	u1791
  6489  001DD0  EFEA  F00E         
  6490                           u1791:
  6491  001DD4                     	goto	l1922
  6492  001DD4  EF10  F00F         u1790:
  6493  001DD8                     	line	54
  6494                           	
  6495                           l1912:
  6496  001DD8                     		movf	((c:___fltol@exp1)),c,w
  6497  001DD8  5022               	xorlw	80h
  6498  001DDA  0A80               	addlw	-(80h^-23)
  6499  001DDC  0F97               	btfsc	status,0
  6500  001DDE  B0D8               	goto	u1801
  6501  001DE0  EFF4  F00E         	goto	u1800
  6502  001DE4  EFF6  F00E         
  6503                           u1801:
  6504  001DE8                     	goto	l1918
  6505  001DE8  EF04  F00F         u1800:
  6506  001DEC                     	line	55
  6507                           	
  6508                           l1914:
  6509  001DEC                     	movlw	low(0)
  6510  001DEC  0E00               	movwf	((c:?___fltol)),c
  6511  001DEE  6E19               	movlw	high(0)
  6512  001DF0  0E00               	movwf	((c:?___fltol+1)),c
  6513  001DF2  6E1A               	movlw	low highword(0)
  6514  001DF4  0E00               	movwf	((c:?___fltol+2)),c
  6515  001DF6  6E1B               	movlw	high highword(0)
  6516  001DF8  0E00               	movwf	((c:?___fltol+3)),c
  6517  001DFA  6E1C               	goto	l516
  6518  001DFC  EF56  F00F         	
  6519                           l1916:
  6520  001E00                     	goto	l516
  6521  001E00  EF56  F00F         	
  6522                           l518:
  6523  001E04                     	goto	l1918
  6524  001E04  EF04  F00F         	line	56
  6525                           	
  6526                           l519:
  6527  001E08                     	line	57
  6528                           	
  6529                           l1918:
  6530  001E08                     	bcf	status,0
  6531  001E08  90D8               	rrcf	((c:___fltol@f1+3)),c
  6532  001E0A  321C               	rrcf	((c:___fltol@f1+2)),c
  6533  001E0C  321B               	rrcf	((c:___fltol@f1+1)),c
  6534  001E0E  321A               	rrcf	((c:___fltol@f1)),c
  6535  001E10  3219               	
  6536                           l1920:
  6537  001E12                     	incfsz	((c:___fltol@exp1)),c
  6538  001E12  3E22               	
  6539                           	goto	l1918
  6540  001E14  EF04  F00F         	goto	l1932
  6541  001E18  EF3A  F00F         	
  6542                           l520:
  6543  001E1C                     	line	59
  6544                           	goto	l1932
  6545  001E1C  EF3A  F00F         	
  6546                           l517:
  6547  001E20                     	line	60
  6548                           	
  6549                           l1922:
  6550  001E20                     		movlw	020h-1
  6551  001E20  0E1F               	cpfsgt	((c:___fltol@exp1)),c
  6552  001E22  6422               	goto	u1811
  6553  001E24  EF16  F00F         	goto	u1810
  6554  001E28  EF18  F00F         
  6555                           u1811:
  6556  001E2C                     	goto	l1930
  6557  001E2C  EF2E  F00F         u1810:
  6558  001E30                     	line	61
  6559                           	
  6560                           l1924:
  6561  001E30                     	movlw	low(0)
  6562  001E30  0E00               	movwf	((c:?___fltol)),c
  6563  001E32  6E19               	movlw	high(0)
  6564  001E34  0E00               	movwf	((c:?___fltol+1)),c
  6565  001E36  6E1A               	movlw	low highword(0)
  6566  001E38  0E00               	movwf	((c:?___fltol+2)),c
  6567  001E3A  6E1B               	movlw	high highword(0)
  6568  001E3C  0E00               	movwf	((c:?___fltol+3)),c
  6569  001E3E  6E1C               	goto	l516
  6570  001E40  EF56  F00F         	
  6571                           l1926:
  6572  001E44                     	goto	l516
  6573  001E44  EF56  F00F         	
  6574                           l522:
  6575  001E48                     	line	62
  6576                           	goto	l1930
  6577  001E48  EF2E  F00F         	
  6578                           l524:
  6579  001E4C                     	line	63
  6580                           	
  6581                           l1928:
  6582  001E4C                     	bcf	status,0
  6583  001E4C  90D8               	rlcf	((c:___fltol@f1)),c
  6584  001E4E  3619               	rlcf	((c:___fltol@f1+1)),c
  6585  001E50  361A               	rlcf	((c:___fltol@f1+2)),c
  6586  001E52  361B               	rlcf	((c:___fltol@f1+3)),c
  6587  001E54  361C               	line	64
  6588                           	decf	((c:___fltol@exp1)),c
  6589  001E56  0622               	goto	l1930
  6590  001E58  EF2E  F00F         	line	65
  6591                           	
  6592                           l523:
  6593  001E5C                     	line	62
  6594                           	
  6595                           l1930:
  6596  001E5C                     	movf	((c:___fltol@exp1)),c,w
  6597  001E5C  5022               	btfss	status,2
  6598  001E5E  A4D8               	goto	u1821
  6599  001E60  EF34  F00F         	goto	u1820
  6600  001E64  EF36  F00F         u1821:
  6601  001E68                     	goto	l1928
  6602  001E68  EF26  F00F         u1820:
  6603  001E6C                     	goto	l1932
  6604  001E6C  EF3A  F00F         	
  6605                           l525:
  6606  001E70                     	goto	l1932
  6607  001E70  EF3A  F00F         	line	66
  6608                           	
  6609                           l521:
  6610  001E74                     	line	67
  6611                           	
  6612                           l1932:
  6613  001E74                     	movf	((c:___fltol@sign1)),c,w
  6614  001E74  5021               	btfsc	status,2
  6615  001E76  B4D8               	goto	u1831
  6616  001E78  EF40  F00F         	goto	u1830
  6617  001E7C  EF42  F00F         u1831:
  6618  001E80                     	goto	l1936
  6619  001E80  EF4C  F00F         u1830:
  6620  001E84                     	line	68
  6621                           	
  6622                           l1934:
  6623  001E84                     	comf	((c:___fltol@f1+3)),c
  6624  001E84  1E1C               	comf	((c:___fltol@f1+2)),c
  6625  001E86  1E1B               	comf	((c:___fltol@f1+1)),c
  6626  001E88  1E1A               	negf	((c:___fltol@f1)),c
  6627  001E8A  6C19               	movlw	0
  6628  001E8C  0E00               	addwfc	((c:___fltol@f1+1)),c
  6629  001E8E  221A               	addwfc	((c:___fltol@f1+2)),c
  6630  001E90  221B               	addwfc	((c:___fltol@f1+3)),c
  6631  001E92  221C               	goto	l1936
  6632  001E94  EF4C  F00F         	
  6633                           l526:
  6634  001E98                     	line	69
  6635                           	
  6636                           l1936:
  6637  001E98                     	movff	(c:___fltol@f1),(c:?___fltol)
  6638  001E98  C019  F019         	movff	(c:___fltol@f1+1),(c:?___fltol+1)
  6639  001E9C  C01A  F01A         	movff	(c:___fltol@f1+2),(c:?___fltol+2)
  6640  001EA0  C01B  F01B         	movff	(c:___fltol@f1+3),(c:?___fltol+3)
  6641  001EA4  C01C  F01C         	goto	l516
  6642  001EA8  EF56  F00F         	
  6643                           l1938:
  6644  001EAC                     	line	70
  6645                           	
  6646                           l516:
  6647  001EAC                     	return	;funcret
  6648  001EAC  0012               	opt stack 0
  6649                           GLOBAL	__end_of___fltol
  6650                           	__end_of___fltol:
  6651  001EAE                     	signat	___fltol,4220
  6652                           	global	___flneg
  6653                           
  6654 ;; *************** function ___flneg *****************
  6655 ;; Defined at:
  6656 ;;		line 15 in file "C:\Program Files (x86)\Microchip\xc8\v2.00\pic\sources\c99\common\flneg.c"
  6657 ;; Parameters:    Size  Location     Type
  6658 ;;  f1              4    0[COMRAM] long 
  6659 ;; Auto vars:     Size  Location     Type
  6660 ;;		None
  6661 ;; Return value:  Size  Location     Type
  6662 ;;                  4    0[COMRAM] long 
  6663 ;; Registers used:
  6664 ;;		wreg, status,2, status,0
  6665 ;; Tracked objects:
  6666 ;;		On entry : 0/0
  6667 ;;		On exit  : 0/0
  6668 ;;		Unchanged: 0/0
  6669 ;; Data sizes:     COMRAM   BANK0   BANK1   BANK2   BANK3   BANK4   BANK5   BANK6   BANK7
  6670 ;;      Params:         4       0       0       0       0       0       0       0       0
  6671 ;;      Locals:         0       0       0       0       0       0       0       0       0
  6672 ;;      Temps:          0       0       0       0       0       0       0       0       0
  6673 ;;      Totals:         4       0       0       0       0       0       0       0       0
  6674 ;;Total ram usage:        4 bytes
  6675 ;; Hardware stack levels used:    1
  6676 ;; Hardware stack levels required when called:    2
  6677 ;; This function calls:
  6678 ;;		Nothing
  6679 ;; This function is called by:
  6680 ;;		_compareTurnOn
  6681 ;;		_compareVolumeUp
  6682 ;;		_compareVolumeDown
  6683 ;;		_compareChannelUp
  6684 ;;		_compareChannelDown
  6685 ;; This function uses a non-reentrant model
  6686 ;;
  6687                           psect	text13,class=CODE,space=0,reloc=2,group=1
  6688                           	file	"C:\Program Files (x86)\Microchip\xc8\v2.00\pic\sources\c99\common\flneg.c"
  6689                           	line	15
  6690                           global __ptext13
  6691                           __ptext13:
  6692  0022C0                     psect	text13
  6693                           	file	"C:\Program Files (x86)\Microchip\xc8\v2.00\pic\sources\c99\common\flneg.c"
  6694                           	line	15
  6695                           	global	__size_of___flneg
  6696                           	__size_of___flneg	equ	__end_of___flneg-___flneg
  6697  0000                     	
  6698                           ___flneg:
  6699  0022C0                     ;incstack = 0
  6700                           	opt	stack 26
  6701                           	line	17
  6702                           	
  6703                           l1888:
  6704  0022C0                     	movf	((c:___flneg@f1)),c,w
  6705  0022C0  5001               iorwf	((c:___flneg@f1+1)),c,w
  6706  0022C2  1002               iorwf	((c:___flneg@f1+2)),c,w
  6707  0022C4  1003               iorwf	((c:___flneg@f1+3)),c,w
  6708  0022C6  1004               	btfsc	status,2
  6709  0022C8  B4D8               	goto	u1761
  6710  0022CA  EF69  F011         	goto	u1760
  6711  0022CE  EF6B  F011         
  6712                           u1761:
  6713  0022D2                     	goto	l1892
  6714  0022D2  EF75  F011         u1760:
  6715  0022D6                     	line	18
  6716                           	
  6717                           l1890:
  6718  0022D6                     	movlw	0
  6719  0022D6  0E00               	xorwf	((c:___flneg@f1)),c
  6720  0022D8  1A01               	movlw	0
  6721  0022DA  0E00               	xorwf	((c:___flneg@f1+1)),c
  6722  0022DC  1A02               	movlw	0
  6723  0022DE  0E00               	xorwf	((c:___flneg@f1+2)),c
  6724  0022E0  1A03               	movlw	080h
  6725  0022E2  0E80               	xorwf	((c:___flneg@f1+3)),c
  6726  0022E4  1A04               	goto	l1892
  6727  0022E6  EF75  F011         	
  6728                           l492:
  6729  0022EA                     	line	19
  6730                           	
  6731                           l1892:
  6732  0022EA                     	movff	(c:___flneg@f1),(c:?___flneg)
  6733  0022EA  C001  F001         	movff	(c:___flneg@f1+1),(c:?___flneg+1)
  6734  0022EE  C002  F002         	movff	(c:___flneg@f1+2),(c:?___flneg+2)
  6735  0022F2  C003  F003         	movff	(c:___flneg@f1+3),(c:?___flneg+3)
  6736  0022F6  C004  F004         	goto	l493
  6737  0022FA  EF7F  F011         	
  6738                           l1894:
  6739  0022FE                     	line	20
  6740                           	
  6741                           l493:
  6742  0022FE                     	return	;funcret
  6743  0022FE  0012               	opt stack 0
  6744                           GLOBAL	__end_of___flneg
  6745                           	__end_of___flneg:
  6746  002300                     	signat	___flneg,4220
  6747                           	global	___flge
  6748                           
  6749 ;; *************** function ___flge *****************
  6750 ;; Defined at:
  6751 ;;		line 4 in file "C:\Program Files (x86)\Microchip\xc8\v2.00\pic\sources\c99\common\flge.c"
  6752 ;; Parameters:    Size  Location     Type
  6753 ;;  ff1             4    0[COMRAM] long 
  6754 ;;  ff2             4    4[COMRAM] long 
  6755 ;; Auto vars:     Size  Location     Type
  6756 ;;		None
  6757 ;; Return value:  Size  Location     Type
  6758 ;;		None               void
  6759 ;; Registers used:
  6760 ;;		wreg, status,2, status,0
  6761 ;; Tracked objects:
  6762 ;;		On entry : 0/0
  6763 ;;		On exit  : 0/0
  6764 ;;		Unchanged: 0/0
  6765 ;; Data sizes:     COMRAM   BANK0   BANK1   BANK2   BANK3   BANK4   BANK5   BANK6   BANK7
  6766 ;;      Params:         8       0       0       0       0       0       0       0       0
  6767 ;;      Locals:         0       0       0       0       0       0       0       0       0
  6768 ;;      Temps:          4       0       0       0       0       0       0       0       0
  6769 ;;      Totals:        12       0       0       0       0       0       0       0       0
  6770 ;;Total ram usage:       12 bytes
  6771 ;; Hardware stack levels used:    1
  6772 ;; Hardware stack levels required when called:    2
  6773 ;; This function calls:
  6774 ;;		Nothing
  6775 ;; This function is called by:
  6776 ;;		_compareTurnOn
  6777 ;;		_compareVolumeUp
  6778 ;;		_compareVolumeDown
  6779 ;;		_compareChannelUp
  6780 ;;		_compareChannelDown
  6781 ;;		_wait_in_ms
  6782 ;; This function uses a non-reentrant model
  6783 ;;
  6784                           psect	text14,class=CODE,space=0,reloc=2,group=1
  6785                           	file	"C:\Program Files (x86)\Microchip\xc8\v2.00\pic\sources\c99\common\flge.c"
  6786                           	line	4
  6787                           global __ptext14
  6788                           __ptext14:
  6789  001A9C                     psect	text14
  6790                           	file	"C:\Program Files (x86)\Microchip\xc8\v2.00\pic\sources\c99\common\flge.c"
  6791                           	line	4
  6792                           	global	__size_of___flge
  6793                           	__size_of___flge	equ	__end_of___flge-___flge
  6794  0000                     	
  6795                           ___flge:
  6796  001A9C                     ;incstack = 0
  6797                           	opt	stack 26
  6798                           	line	7
  6799                           	
  6800                           l1866:
  6801  001A9C                     	movlw	0
  6802  001A9C  0E00               	andwf	((c:___flge@ff1)),c,w
  6803  001A9E  1401               	movwf	(??___flge+0+0)&0ffh,c
  6804  001AA0  6E09               	movlw	0
  6805  001AA2  0E00               	andwf	((c:___flge@ff1+1)),c,w
  6806  001AA4  1402               	movwf	1+(??___flge+0+0)&0ffh,c
  6807  001AA6  6E0A               	
  6808                           	movlw	080h
  6809  001AA8  0E80               	andwf	((c:___flge@ff1+2)),c,w
  6810  001AAA  1403               	movwf	2+(??___flge+0+0)&0ffh,c
  6811  001AAC  6E0B               	
  6812                           	movlw	07Fh
  6813  001AAE  0E7F               	andwf	((c:___flge@ff1+3)),c,w
  6814  001AB0  1404               	movwf	3+(??___flge+0+0)&0ffh,c
  6815  001AB2  6E0C               	movf	(??___flge+0+0),c,w
  6816  001AB4  5009               iorwf	(??___flge+0+1),c,w
  6817  001AB6  100A               iorwf	(??___flge+0+2),c,w
  6818  001AB8  100B               iorwf	(??___flge+0+3),c,w
  6819  001ABA  100C               	btfss	status,2
  6820  001ABC  A4D8               	goto	u1711
  6821  001ABE  EF63  F00D         	goto	u1710
  6822  001AC2  EF65  F00D         
  6823                           u1711:
  6824  001AC6                     	goto	l1870
  6825  001AC6  EF6F  F00D         u1710:
  6826  001ACA                     	line	8
  6827                           	
  6828                           l1868:
  6829  001ACA                     	movlw	low(0)
  6830  001ACA  0E00               	movwf	((c:___flge@ff1)),c
  6831  001ACC  6E01               	movlw	high(0)
  6832  001ACE  0E00               	movwf	((c:___flge@ff1+1)),c
  6833  001AD0  6E02               	movlw	low highword(0)
  6834  001AD2  0E00               	movwf	((c:___flge@ff1+2)),c
  6835  001AD4  6E03               	movlw	high highword(0)
  6836  001AD6  0E00               	movwf	((c:___flge@ff1+3)),c
  6837  001AD8  6E04               	goto	l1870
  6838  001ADA  EF6F  F00D         	
  6839                           l481:
  6840  001ADE                     	line	9
  6841                           	
  6842                           l1870:
  6843  001ADE                     	movlw	0
  6844  001ADE  0E00               	andwf	((c:___flge@ff2)),c,w
  6845  001AE0  1405               	movwf	(??___flge+0+0)&0ffh,c
  6846  001AE2  6E09               	movlw	0
  6847  001AE4  0E00               	andwf	((c:___flge@ff2+1)),c,w
  6848  001AE6  1406               	movwf	1+(??___flge+0+0)&0ffh,c
  6849  001AE8  6E0A               	
  6850                           	movlw	080h
  6851  001AEA  0E80               	andwf	((c:___flge@ff2+2)),c,w
  6852  001AEC  1407               	movwf	2+(??___flge+0+0)&0ffh,c
  6853  001AEE  6E0B               	
  6854                           	movlw	07Fh
  6855  001AF0  0E7F               	andwf	((c:___flge@ff2+3)),c,w
  6856  001AF2  1408               	movwf	3+(??___flge+0+0)&0ffh,c
  6857  001AF4  6E0C               	movf	(??___flge+0+0),c,w
  6858  001AF6  5009               iorwf	(??___flge+0+1),c,w
  6859  001AF8  100A               iorwf	(??___flge+0+2),c,w
  6860  001AFA  100B               iorwf	(??___flge+0+3),c,w
  6861  001AFC  100C               	btfss	status,2
  6862  001AFE  A4D8               	goto	u1721
  6863  001B00  EF84  F00D         	goto	u1720
  6864  001B04  EF86  F00D         
  6865                           u1721:
  6866  001B08                     	goto	l1874
  6867  001B08  EF90  F00D         u1720:
  6868  001B0C                     	line	10
  6869                           	
  6870                           l1872:
  6871  001B0C                     	movlw	low(0)
  6872  001B0C  0E00               	movwf	((c:___flge@ff2)),c
  6873  001B0E  6E05               	movlw	high(0)
  6874  001B10  0E00               	movwf	((c:___flge@ff2+1)),c
  6875  001B12  6E06               	movlw	low highword(0)
  6876  001B14  0E00               	movwf	((c:___flge@ff2+2)),c
  6877  001B16  6E07               	movlw	high highword(0)
  6878  001B18  0E00               	movwf	((c:___flge@ff2+3)),c
  6879  001B1A  6E08               	goto	l1874
  6880  001B1C  EF90  F00D         	
  6881                           l482:
  6882  001B20                     	line	12
  6883                           	
  6884                           l1874:
  6885  001B20                     	
  6886                           	btfss	((c:___flge@ff1+3)),c,(31)&7
  6887  001B20  AE04               	goto	u1731
  6888  001B22  EF95  F00D         	goto	u1730
  6889  001B26  EF97  F00D         u1731:
  6890  001B2A                     	goto	l1878
  6891  001B2A  EFB6  F00D         u1730:
  6892  001B2E                     	line	13
  6893                           	
  6894                           l1876:
  6895  001B2E                     	movff	(c:___flge@ff1),??___flge+0+0
  6896  001B2E  C001  F009         	movff	(c:___flge@ff1+1),??___flge+0+0+1
  6897  001B32  C002  F00A         	movff	(c:___flge@ff1+2),??___flge+0+0+2
  6898  001B36  C003  F00B         	movff	(c:___flge@ff1+3),??___flge+0+0+3
  6899  001B3A  C004  F00C         	comf	(??___flge+0+0),c
  6900  001B3E  1E09               	comf	(??___flge+0+1),c
  6901  001B40  1E0A               	comf	(??___flge+0+2),c
  6902  001B42  1E0B               	comf	(??___flge+0+3),c
  6903  001B44  1E0C               	incf	(??___flge+0+0),c
  6904  001B46  2A09               	movlw	0
  6905  001B48  0E00               	addwfc	(??___flge+0+1),c
  6906  001B4A  220A               	addwfc	(??___flge+0+2),c
  6907  001B4C  220B               	addwfc	(??___flge+0+3),c
  6908  001B4E  220C               	movlw	0
  6909  001B50  0E00               	addwf	(??___flge+0+0),c,w
  6910  001B52  2409               	movwf	((c:___flge@ff1)),c
  6911  001B54  6E01               	movlw	0
  6912  001B56  0E00               	addwfc	(??___flge+0+1),c,w
  6913  001B58  200A               	movwf	1+((c:___flge@ff1)),c
  6914  001B5A  6E02               	
  6915                           	movlw	0
  6916  001B5C  0E00               	addwfc	(??___flge+0+2),c,w
  6917  001B5E  200B               	movwf	2+((c:___flge@ff1)),c
  6918  001B60  6E03               	
  6919                           	movlw	080h
  6920  001B62  0E80               	addwfc	(??___flge+0+3),c,w
  6921  001B64  200C               	movwf	3+((c:___flge@ff1)),c
  6922  001B66  6E04               	goto	l1878
  6923  001B68  EFB6  F00D         	
  6924                           l483:
  6925  001B6C                     	line	14
  6926                           	
  6927                           l1878:
  6928  001B6C                     	
  6929                           	btfss	((c:___flge@ff2+3)),c,(31)&7
  6930  001B6C  AE08               	goto	u1741
  6931  001B6E  EFBB  F00D         	goto	u1740
  6932  001B72  EFBD  F00D         u1741:
  6933  001B76                     	goto	l484
  6934  001B76  EFDA  F00D         u1740:
  6935  001B7A                     	line	15
  6936                           	
  6937                           l1880:
  6938  001B7A                     	movff	(c:___flge@ff2),??___flge+0+0
  6939  001B7A  C005  F009         	movff	(c:___flge@ff2+1),??___flge+0+0+1
  6940  001B7E  C006  F00A         	movff	(c:___flge@ff2+2),??___flge+0+0+2
  6941  001B82  C007  F00B         	movff	(c:___flge@ff2+3),??___flge+0+0+3
  6942  001B86  C008  F00C         	comf	(??___flge+0+0),c
  6943  001B8A  1E09               	comf	(??___flge+0+1),c
  6944  001B8C  1E0A               	comf	(??___flge+0+2),c
  6945  001B8E  1E0B               	comf	(??___flge+0+3),c
  6946  001B90  1E0C               	incf	(??___flge+0+0),c
  6947  001B92  2A09               	movlw	0
  6948  001B94  0E00               	addwfc	(??___flge+0+1),c
  6949  001B96  220A               	addwfc	(??___flge+0+2),c
  6950  001B98  220B               	addwfc	(??___flge+0+3),c
  6951  001B9A  220C               	movlw	0
  6952  001B9C  0E00               	addwf	(??___flge+0+0),c,w
  6953  001B9E  2409               	movwf	((c:___flge@ff2)),c
  6954  001BA0  6E05               	movlw	0
  6955  001BA2  0E00               	addwfc	(??___flge+0+1),c,w
  6956  001BA4  200A               	movwf	1+((c:___flge@ff2)),c
  6957  001BA6  6E06               	
  6958                           	movlw	0
  6959  001BA8  0E00               	addwfc	(??___flge+0+2),c,w
  6960  001BAA  200B               	movwf	2+((c:___flge@ff2)),c
  6961  001BAC  6E07               	
  6962                           	movlw	080h
  6963  001BAE  0E80               	addwfc	(??___flge+0+3),c,w
  6964  001BB0  200C               	movwf	3+((c:___flge@ff2)),c
  6965  001BB2  6E08               	
  6966                           l484:
  6967  001BB4                     	line	16
  6968                           	movlw	0
  6969  001BB4  0E00               	xorwf	((c:___flge@ff1)),c
  6970  001BB6  1A01               	movlw	0
  6971  001BB8  0E00               	xorwf	((c:___flge@ff1+1)),c
  6972  001BBA  1A02               	movlw	0
  6973  001BBC  0E00               	xorwf	((c:___flge@ff1+2)),c
  6974  001BBE  1A03               	movlw	080h
  6975  001BC0  0E80               	xorwf	((c:___flge@ff1+3)),c
  6976  001BC2  1A04               	line	17
  6977                           	movlw	0
  6978  001BC4  0E00               	xorwf	((c:___flge@ff2)),c
  6979  001BC6  1A05               	movlw	0
  6980  001BC8  0E00               	xorwf	((c:___flge@ff2+1)),c
  6981  001BCA  1A06               	movlw	0
  6982  001BCC  0E00               	xorwf	((c:___flge@ff2+2)),c
  6983  001BCE  1A07               	movlw	080h
  6984  001BD0  0E80               	xorwf	((c:___flge@ff2+3)),c
  6985  001BD2  1A08               	line	18
  6986                           		movf	((c:___flge@ff2)),c,w
  6987  001BD4  5005               	subwf	((c:___flge@ff1)),c,w
  6988  001BD6  5C01               	movf	((c:___flge@ff2+1)),c,w
  6989  001BD8  5006               	subwfb	((c:___flge@ff1+1)),c,w
  6990  001BDA  5802               	movf	((c:___flge@ff2+2)),c,w
  6991  001BDC  5007               	subwfb	((c:___flge@ff1+2)),c,w
  6992  001BDE  5803               	movf	((c:___flge@ff2+3)),c,w
  6993  001BE0  5008               	subwfb	((c:___flge@ff1+3)),c,w
  6994  001BE2  5804               	btfsc	status,0
  6995  001BE4  B0D8               	goto	u1751
  6996  001BE6  EFF7  F00D         	goto	u1750
  6997  001BEA  EFF9  F00D         
  6998                           u1751:
  6999  001BEE                     	goto	l1884
  7000  001BEE  EFFC  F00D         u1750:
  7001  001BF2                     	
  7002                           l1882:
  7003  001BF2                     	bcf	status,0
  7004  001BF2  90D8               	goto	l489
  7005  001BF4  EF01  F00E         	
  7006                           l486:
  7007  001BF8                     	
  7008                           l1884:
  7009  001BF8                     	bsf	status,0
  7010  001BF8  80D8               	goto	l489
  7011  001BFA  EF01  F00E         	
  7012                           l488:
  7013  001BFE                     	goto	l489
  7014  001BFE  EF01  F00E         	
  7015                           l1886:
  7016  001C02                     	line	19
  7017                           	
  7018                           l489:
  7019  001C02                     	return	;funcret
  7020  001C02  0012               	opt stack 0
  7021                           GLOBAL	__end_of___flge
  7022                           	__end_of___flge:
  7023  001C04                     	signat	___flge,8312
  7024                           	global	___fladd
  7025                           
  7026 ;; *************** function ___fladd *****************
  7027 ;; Defined at:
  7028 ;;		line 10 in file "C:\Program Files (x86)\Microchip\xc8\v2.00\pic\sources\c99\common\sprcadd.c"
  7029 ;; Parameters:    Size  Location     Type
  7030 ;;  b               4    4[COMRAM] long 
  7031 ;;  a               4    8[COMRAM] long 
  7032 ;; Auto vars:     Size  Location     Type
  7033 ;;  grs             1   23[COMRAM] unsigned char 
  7034 ;;  bexp            1   22[COMRAM] unsigned char 
  7035 ;;  aexp            1   21[COMRAM] unsigned char 
  7036 ;;  signs           1   20[COMRAM] unsigned char 
  7037 ;; Return value:  Size  Location     Type
  7038 ;;                  4    4[COMRAM] unsigned char 
  7039 ;; Registers used:
  7040 ;;		wreg, status,2, status,0
  7041 ;; Tracked objects:
  7042 ;;		On entry : 0/0
  7043 ;;		On exit  : 0/0
  7044 ;;		Unchanged: 0/0
  7045 ;; Data sizes:     COMRAM   BANK0   BANK1   BANK2   BANK3   BANK4   BANK5   BANK6   BANK7
  7046 ;;      Params:         8       0       0       0       0       0       0       0       0
  7047 ;;      Locals:         4       0       0       0       0       0       0       0       0
  7048 ;;      Temps:          8       0       0       0       0       0       0       0       0
  7049 ;;      Totals:        20       0       0       0       0       0       0       0       0
  7050 ;;Total ram usage:       20 bytes
  7051 ;; Hardware stack levels used:    1
  7052 ;; Hardware stack levels required when called:    2
  7053 ;; This function calls:
  7054 ;;		Nothing
  7055 ;; This function is called by:
  7056 ;;		_compareTurnOn
  7057 ;;		_compareVolumeUp
  7058 ;;		_compareVolumeDown
  7059 ;;		_compareChannelUp
  7060 ;;		_compareChannelDown
  7061 ;; This function uses a non-reentrant model
  7062 ;;
  7063                           psect	text15,class=CODE,space=0,reloc=2,group=1
  7064                           	file	"C:\Program Files (x86)\Microchip\xc8\v2.00\pic\sources\c99\common\sprcadd.c"
  7065                           	line	10
  7066                           global __ptext15
  7067                           __ptext15:
  7068  000798                     psect	text15
  7069                           	file	"C:\Program Files (x86)\Microchip\xc8\v2.00\pic\sources\c99\common\sprcadd.c"
  7070                           	line	10
  7071                           	global	__size_of___fladd
  7072                           	__size_of___fladd	equ	__end_of___fladd-___fladd
  7073  0000                     	
  7074                           ___fladd:
  7075  000798                     ;incstack = 0
  7076                           	opt	stack 26
  7077                           	line	21
  7078                           	
  7079                           l1664:
  7080  000798                     	movf	(0+((c:___fladd@b)+03h)),c,w
  7081  000798  5008               	andlw	low(080h)
  7082  00079A  0B80               	movwf	((c:___fladd@signs)),c
  7083  00079C  6E15               	line	22
  7084                           	movf	(0+((c:___fladd@b)+03h)),c,w
  7085  00079E  5008               	addwf	(0+((c:___fladd@b)+03h)),c,w
  7086  0007A0  2408               	movwf	((c:___fladd@bexp)),c
  7087  0007A2  6E17               	line	23
  7088                           	
  7089                           l1666:
  7090  0007A4                     	
  7091                           	btfss	(0+((c:___fladd@b)+02h)),c,(7)&7
  7092  0007A4  AE07               	goto	u1321
  7093  0007A6  EFD7  F003         	goto	u1320
  7094  0007AA  EFD9  F003         u1321:
  7095  0007AE                     	goto	l1670
  7096  0007AE  EFDC  F003         u1320:
  7097  0007B2                     	line	24
  7098                           	
  7099                           l1668:
  7100  0007B2                     	bsf	(0+(0/8)+(c:___fladd@bexp)),c,(0)&7
  7101  0007B2  8017               	goto	l1670
  7102  0007B4  EFDC  F003         	line	25
  7103                           	
  7104                           l735:
  7105  0007B8                     	line	28
  7106                           	
  7107                           l1670:
  7108  0007B8                     	movf	((c:___fladd@bexp)),c,w
  7109  0007B8  5017               	btfsc	status,2
  7110  0007BA  B4D8               	goto	u1331
  7111  0007BC  EFE2  F003         	goto	u1330
  7112  0007C0  EFE4  F003         u1331:
  7113  0007C4                     	goto	l1680
  7114  0007C4  EFFB  F003         u1330:
  7115  0007C8                     	line	30
  7116                           	
  7117                           l1672:
  7118  0007C8                     		incf	((c:___fladd@bexp)),c,w
  7119  0007C8  2817               	btfss	status,2
  7120  0007CA  A4D8               	goto	u1341
  7121  0007CC  EFEA  F003         	goto	u1340
  7122  0007D0  EFEC  F003         
  7123                           u1341:
  7124  0007D4                     	goto	l1676
  7125  0007D4  EFF6  F003         u1340:
  7126  0007D8                     	line	32
  7127                           	
  7128                           l1674:
  7129  0007D8                     	movlw	low(normalize32(0x0))
  7130  0007D8  0E00               	movwf	((c:___fladd@b)),c
  7131  0007DA  6E05               	movlw	high(normalize32(0x0))
  7132  0007DC  0E00               	movwf	((c:___fladd@b+1)),c
  7133  0007DE  6E06               	movlw	low highword(normalize32(0x0))
  7134  0007E0  0E00               	movwf	((c:___fladd@b+2)),c
  7135  0007E2  6E07               	movlw	high highword(normalize32(0x0))
  7136  0007E4  0E00               	movwf	((c:___fladd@b+3)),c
  7137  0007E6  6E08               	goto	l1676
  7138  0007E8  EFF6  F003         	line	33
  7139                           	
  7140                           l737:
  7141  0007EC                     	line	35
  7142                           	
  7143                           l1676:
  7144  0007EC                     	bsf	(0+(23/8)+(c:___fladd@b)),c,(23)&7
  7145  0007EC  8E07               	line	37
  7146                           	
  7147                           l1678:
  7148  0007EE                     	movlw	low(0)
  7149  0007EE  0E00               	movwf	(0+((c:___fladd@b)+03h)),c
  7150  0007F0  6E08               	line	38
  7151                           	goto	l1682
  7152  0007F2  EF05  F004         	line	39
  7153                           	
  7154                           l736:
  7155  0007F6                     	line	41
  7156                           	
  7157                           l1680:
  7158  0007F6                     	movlw	low(normalize32(0x0))
  7159  0007F6  0E00               	movwf	((c:___fladd@b)),c
  7160  0007F8  6E05               	movlw	high(normalize32(0x0))
  7161  0007FA  0E00               	movwf	((c:___fladd@b+1)),c
  7162  0007FC  6E06               	movlw	low highword(normalize32(0x0))
  7163  0007FE  0E00               	movwf	((c:___fladd@b+2)),c
  7164  000800  6E07               	movlw	high highword(normalize32(0x0))
  7165  000802  0E00               	movwf	((c:___fladd@b+3)),c
  7166  000804  6E08               	goto	l1682
  7167  000806  EF05  F004         	line	42
  7168                           	
  7169                           l738:
  7170  00080A                     	line	44
  7171                           	
  7172                           l1682:
  7173  00080A                     	movf	(0+((c:___fladd@a)+03h)),c,w
  7174  00080A  500C               	andlw	low(080h)
  7175  00080C  0B80               	movwf	((c:___fladd@aexp)),c
  7176  00080E  6E16               	line	46
  7177                           	
  7178                           l1684:
  7179  000810                     	movf	((c:___fladd@signs)),c,w
  7180  000810  5015               xorwf	((c:___fladd@aexp)),c,w
  7181  000812  1816               	btfsc	status,2
  7182  000814  B4D8               	goto	u1351
  7183  000816  EF0F  F004         	goto	u1350
  7184  00081A  EF11  F004         
  7185                           u1351:
  7186  00081E                     	goto	l1688
  7187  00081E  EF14  F004         u1350:
  7188  000822                     	line	47
  7189                           	
  7190                           l1686:
  7191  000822                     	bsf	(0+(6/8)+(c:___fladd@signs)),c,(6)&7
  7192  000822  8C15               	goto	l1688
  7193  000824  EF14  F004         	line	48
  7194                           	
  7195                           l739:
  7196  000828                     	line	49
  7197                           	
  7198                           l1688:
  7199  000828                     	movf	(0+((c:___fladd@a)+03h)),c,w
  7200  000828  500C               	addwf	(0+((c:___fladd@a)+03h)),c,w
  7201  00082A  240C               	movwf	((c:___fladd@aexp)),c
  7202  00082C  6E16               	line	50
  7203                           	
  7204                           l1690:
  7205  00082E                     	
  7206                           	btfss	(0+((c:___fladd@a)+02h)),c,(7)&7
  7207  00082E  AE0B               	goto	u1361
  7208  000830  EF1C  F004         	goto	u1360
  7209  000834  EF1E  F004         u1361:
  7210  000838                     	goto	l1694
  7211  000838  EF21  F004         u1360:
  7212  00083C                     	line	51
  7213                           	
  7214                           l1692:
  7215  00083C                     	bsf	(0+(0/8)+(c:___fladd@aexp)),c,(0)&7
  7216  00083C  8016               	goto	l1694
  7217  00083E  EF21  F004         	line	52
  7218                           	
  7219                           l740:
  7220  000842                     	line	55
  7221                           	
  7222                           l1694:
  7223  000842                     	movf	((c:___fladd@aexp)),c,w
  7224  000842  5016               	btfsc	status,2
  7225  000844  B4D8               	goto	u1371
  7226  000846  EF27  F004         	goto	u1370
  7227  00084A  EF29  F004         u1371:
  7228  00084E                     	goto	l1704
  7229  00084E  EF40  F004         u1370:
  7230  000852                     	line	57
  7231                           	
  7232                           l1696:
  7233  000852                     		incf	((c:___fladd@aexp)),c,w
  7234  000852  2816               	btfss	status,2
  7235  000854  A4D8               	goto	u1381
  7236  000856  EF2F  F004         	goto	u1380
  7237  00085A  EF31  F004         
  7238                           u1381:
  7239  00085E                     	goto	l1700
  7240  00085E  EF3B  F004         u1380:
  7241  000862                     	line	59
  7242                           	
  7243                           l1698:
  7244  000862                     	movlw	low(normalize32(0x0))
  7245  000862  0E00               	movwf	((c:___fladd@a)),c
  7246  000864  6E09               	movlw	high(normalize32(0x0))
  7247  000866  0E00               	movwf	((c:___fladd@a+1)),c
  7248  000868  6E0A               	movlw	low highword(normalize32(0x0))
  7249  00086A  0E00               	movwf	((c:___fladd@a+2)),c
  7250  00086C  6E0B               	movlw	high highword(normalize32(0x0))
  7251  00086E  0E00               	movwf	((c:___fladd@a+3)),c
  7252  000870  6E0C               	goto	l1700
  7253  000872  EF3B  F004         	line	60
  7254                           	
  7255                           l742:
  7256  000876                     	line	62
  7257                           	
  7258                           l1700:
  7259  000876                     	bsf	(0+(23/8)+(c:___fladd@a)),c,(23)&7
  7260  000876  8E0B               	line	64
  7261                           	
  7262                           l1702:
  7263  000878                     	movlw	low(0)
  7264  000878  0E00               	movwf	(0+((c:___fladd@a)+03h)),c
  7265  00087A  6E0C               	line	65
  7266                           	goto	l1706
  7267  00087C  EF4A  F004         	line	66
  7268                           	
  7269                           l741:
  7270  000880                     	line	68
  7271                           	
  7272                           l1704:
  7273  000880                     	movlw	low(normalize32(0x0))
  7274  000880  0E00               	movwf	((c:___fladd@a)),c
  7275  000882  6E09               	movlw	high(normalize32(0x0))
  7276  000884  0E00               	movwf	((c:___fladd@a+1)),c
  7277  000886  6E0A               	movlw	low highword(normalize32(0x0))
  7278  000888  0E00               	movwf	((c:___fladd@a+2)),c
  7279  00088A  6E0B               	movlw	high highword(normalize32(0x0))
  7280  00088C  0E00               	movwf	((c:___fladd@a+3)),c
  7281  00088E  6E0C               	goto	l1706
  7282  000890  EF4A  F004         	line	69
  7283                           	
  7284                           l743:
  7285  000894                     	line	75
  7286                           	
  7287                           l1706:
  7288  000894                     		movf	((c:___fladd@bexp)),c,w
  7289  000894  5017               	subwf	((c:___fladd@aexp)),c,w
  7290  000896  5C16               	btfsc	status,0
  7291  000898  B0D8               	goto	u1391
  7292  00089A  EF51  F004         	goto	u1390
  7293  00089E  EF53  F004         
  7294                           u1391:
  7295  0008A2                     	goto	l1742
  7296  0008A2  EF7E  F004         u1390:
  7297  0008A6                     	line	77
  7298                           	
  7299                           l1708:
  7300  0008A6                     	
  7301                           	btfss	((c:___fladd@signs)),c,(6)&7
  7302  0008A6  AC15               	goto	u1401
  7303  0008A8  EF58  F004         	goto	u1400
  7304  0008AC  EF5A  F004         u1401:
  7305  0008B0                     	goto	l1712
  7306  0008B0  EF5E  F004         u1400:
  7307  0008B4                     	line	78
  7308                           	
  7309                           l1710:
  7310  0008B4                     	movlw	(080h)&0ffh
  7311  0008B4  0E80               	xorwf	((c:___fladd@signs)),c
  7312  0008B6  1A15               	goto	l1712
  7313  0008B8  EF5E  F004         	line	79
  7314                           	
  7315                           l745:
  7316  0008BC                     	line	81
  7317                           	
  7318                           l1712:
  7319  0008BC                     	movff	(c:___fladd@bexp),(c:___fladd@grs)
  7320  0008BC  C017  F018         	line	82
  7321                           	
  7322                           l1714:
  7323  0008C0                     	movff	(c:___fladd@aexp),(c:___fladd@bexp)
  7324  0008C0  C016  F017         	line	83
  7325                           	
  7326                           l1716:
  7327  0008C4                     	movff	(c:___fladd@grs),(c:___fladd@aexp)
  7328  0008C4  C018  F016         	line	84
  7329                           	
  7330                           l1718:
  7331  0008C8                     	movff	(c:___fladd@b),(c:___fladd@grs)
  7332  0008C8  C005  F018         	line	85
  7333                           	
  7334                           l1720:
  7335  0008CC                     	movff	(c:___fladd@a),(c:___fladd@b)
  7336  0008CC  C009  F005         	line	86
  7337                           	
  7338                           l1722:
  7339  0008D0                     	movff	(c:___fladd@grs),(c:___fladd@a)
  7340  0008D0  C018  F009         	line	87
  7341                           	
  7342                           l1724:
  7343  0008D4                     	movff	0+((c:___fladd@b)+01h),(c:___fladd@grs)
  7344  0008D4  C006  F018         	line	88
  7345                           	
  7346                           l1726:
  7347  0008D8                     	movff	0+((c:___fladd@a)+01h),0+((c:___fladd@b)+01h)
  7348  0008D8  C00A  F006         	line	89
  7349                           	
  7350                           l1728:
  7351  0008DC                     	movff	(c:___fladd@grs),0+((c:___fladd@a)+01h)
  7352  0008DC  C018  F00A         	line	90
  7353                           	
  7354                           l1730:
  7355  0008E0                     	movff	0+((c:___fladd@b)+02h),(c:___fladd@grs)
  7356  0008E0  C007  F018         	line	91
  7357                           	
  7358                           l1732:
  7359  0008E4                     	movff	0+((c:___fladd@a)+02h),0+((c:___fladd@b)+02h)
  7360  0008E4  C00B  F007         	line	92
  7361                           	
  7362                           l1734:
  7363  0008E8                     	movff	(c:___fladd@grs),0+((c:___fladd@a)+02h)
  7364  0008E8  C018  F00B         	line	93
  7365                           	
  7366                           l1736:
  7367  0008EC                     	movff	0+((c:___fladd@b)+03h),(c:___fladd@grs)
  7368  0008EC  C008  F018         	line	94
  7369                           	
  7370                           l1738:
  7371  0008F0                     	movff	0+((c:___fladd@a)+03h),0+((c:___fladd@b)+03h)
  7372  0008F0  C00C  F008         	line	95
  7373                           	
  7374                           l1740:
  7375  0008F4                     	movff	(c:___fladd@grs),0+((c:___fladd@a)+03h)
  7376  0008F4  C018  F00C         	goto	l1742
  7377  0008F8  EF7E  F004         	line	96
  7378                           	
  7379                           l744:
  7380  0008FC                     	line	98
  7381                           	
  7382                           l1742:
  7383  0008FC                     	movlw	low(0)
  7384  0008FC  0E00               	movwf	((c:___fladd@grs)),c
  7385  0008FE  6E18               	line	100
  7386                           	
  7387                           l1744:
  7388  000900                     	movf	((c:___fladd@bexp)),c,w
  7389  000900  5017               	movwf	(??___fladd+0+0)&0ffh,c
  7390  000902  6E0D               	clrf	(??___fladd+0+0+1)&0ffh,c
  7391  000904  6A0E               
  7392                           	comf	(??___fladd+0+0),c
  7393  000906  1E0D               	comf	(??___fladd+0+1),c
  7394  000908  1E0E               	infsnz	(??___fladd+0+0),c
  7395  00090A  4A0D               	incf	(??___fladd+0+1),c
  7396  00090C  2A0E               	movf	((c:___fladd@aexp)),c,w
  7397  00090E  5016               	movwf	(??___fladd+2+0)&0ffh,c
  7398  000910  6E0F               	clrf	(??___fladd+2+0+1)&0ffh,c
  7399  000912  6A10               
  7400                           	movf	(??___fladd+0+0),c,w
  7401  000914  500D               	addwf	(??___fladd+2+0),c
  7402  000916  260F               	movf	(??___fladd+0+1),c,w
  7403  000918  500E               	addwfc	(??___fladd+2+1),c
  7404  00091A  2210               	btfsc	(??___fladd+2+1),c,7
  7405  00091C  BE10               	goto	u1411
  7406  00091E  EF9A  F004         	movf	(??___fladd+2+1),c,w
  7407  000922  5010               	bnz	u1410
  7408  000924  E109               	movlw	26
  7409  000926  0E1A               	subwf	 (??___fladd+2+0),c,w
  7410  000928  5C0F               	btfss	status,0
  7411  00092A  A0D8               	goto	u1411
  7412  00092C  EF9A  F004         	goto	u1410
  7413  000930  EF9C  F004         
  7414                           u1411:
  7415  000934                     	goto	l748
  7416  000934  EFD9  F004         u1410:
  7417  000938                     	line	101
  7418                           	
  7419                           l1746:
  7420  000938                     	movf	((c:___fladd@b)),c,w
  7421  000938  5005               iorwf	((c:___fladd@b+1)),c,w
  7422  00093A  1006               iorwf	((c:___fladd@b+2)),c,w
  7423  00093C  1007               iorwf	((c:___fladd@b+3)),c,w
  7424  00093E  1008               	btfss	status,2
  7425  000940  A4D8               	goto	u1421
  7426  000942  EFA5  F004         	goto	u1420
  7427  000946  EFA8  F004         
  7428                           u1421:
  7429  00094A                     	movlw	1
  7430  00094A  0E01               	goto	u1430
  7431  00094C  EFA9  F004         u1420:
  7432  000950                     	movlw	0
  7433  000950  0E00               u1430:
  7434  000952                     	movwf	((c:___fladd@grs)),c
  7435  000952  6E18               	line	102
  7436                           	
  7437                           l1748:
  7438  000954                     	movlw	low(0)
  7439  000954  0E00               	movwf	((c:___fladd@b)),c
  7440  000956  6E05               	movlw	high(0)
  7441  000958  0E00               	movwf	((c:___fladd@b+1)),c
  7442  00095A  6E06               	movlw	low highword(0)
  7443  00095C  0E00               	movwf	((c:___fladd@b+2)),c
  7444  00095E  6E07               	movlw	high highword(0)
  7445  000960  0E00               	movwf	((c:___fladd@b+3)),c
  7446  000962  6E08               	line	103
  7447                           	
  7448                           l1750:
  7449  000964                     	movff	(c:___fladd@aexp),(c:___fladd@bexp)
  7450  000964  C016  F017         	line	104
  7451                           	goto	l747
  7452  000968  EFE4  F004         	line	105
  7453                           	
  7454                           l746:
  7455  00096C                     	line	106
  7456                           	goto	l748
  7457  00096C  EFD9  F004         	
  7458                           l749:
  7459  000970                     	line	109
  7460                           	
  7461                           	btfss	((c:___fladd@grs)),c,(0)&7
  7462  000970  A018               	goto	u1441
  7463  000972  EFBD  F004         	goto	u1440
  7464  000976  EFBF  F004         u1441:
  7465  00097A                     	goto	l1754
  7466  00097A  EFC5  F004         u1440:
  7467  00097E                     	line	110
  7468                           	
  7469                           l1752:
  7470  00097E                     	bcf	status,0
  7471  00097E  90D8               	rrcf	((c:___fladd@grs)),c,w
  7472  000980  3018               	iorlw	low(01h)
  7473  000982  0901               	movwf	((c:___fladd@grs)),c
  7474  000984  6E18               	line	111
  7475                           	goto	l1756
  7476  000986  EFC9  F004         	line	112
  7477                           	
  7478                           l750:
  7479  00098A                     	line	113
  7480                           	
  7481                           l1754:
  7482  00098A                     	bcf status,0
  7483  00098A  90D8               	rrcf	((c:___fladd@grs)),c
  7484  00098C  3218               
  7485                           	goto	l1756
  7486  00098E  EFC9  F004         	line	114
  7487                           	
  7488                           l751:
  7489  000992                     	line	115
  7490                           	
  7491                           l1756:
  7492  000992                     	
  7493                           	btfss	((c:___fladd@b)),c,(0)&7
  7494  000992  A005               	goto	u1451
  7495  000994  EFCE  F004         	goto	u1450
  7496  000998  EFD0  F004         u1451:
  7497  00099C                     	goto	l1760
  7498  00099C  EFD3  F004         u1450:
  7499  0009A0                     	line	116
  7500                           	
  7501                           l1758:
  7502  0009A0                     	bsf	(0+(7/8)+(c:___fladd@grs)),c,(7)&7
  7503  0009A0  8E18               	goto	l1760
  7504  0009A2  EFD3  F004         	line	117
  7505                           	
  7506                           l752:
  7507  0009A6                     	line	118
  7508                           	
  7509                           l1760:
  7510  0009A6                     	rlcf	((c:___fladd@b+3)),c,w
  7511  0009A6  3408               	rrcf	((c:___fladd@b+3)),c
  7512  0009A8  3208               	rrcf	((c:___fladd@b+2)),c
  7513  0009AA  3207               	rrcf	((c:___fladd@b+1)),c
  7514  0009AC  3206               	rrcf	((c:___fladd@b)),c
  7515  0009AE  3205               	line	119
  7516                           	
  7517                           l1762:
  7518  0009B0                     	incf	((c:___fladd@bexp)),c
  7519  0009B0  2A17               	line	120
  7520                           	
  7521                           l748:
  7522  0009B2                     	line	106
  7523                           		movf	((c:___fladd@aexp)),c,w
  7524  0009B2  5016               	subwf	((c:___fladd@bexp)),c,w
  7525  0009B4  5C17               	btfss	status,0
  7526  0009B6  A0D8               	goto	u1461
  7527  0009B8  EFE0  F004         	goto	u1460
  7528  0009BC  EFE2  F004         
  7529                           u1461:
  7530  0009C0                     	goto	l749
  7531  0009C0  EFB8  F004         u1460:
  7532  0009C4                     	goto	l747
  7533  0009C4  EFE4  F004         	
  7534                           l753:
  7535  0009C8                     	line	121
  7536                           	
  7537                           l747:
  7538  0009C8                     	line	124
  7539                           	
  7540                           	btfsc	((c:___fladd@signs)),c,(6)&7
  7541  0009C8  BC15               	goto	u1471
  7542  0009CA  EFE9  F004         	goto	u1470
  7543  0009CE  EFEB  F004         u1471:
  7544  0009D2                     	goto	l1788
  7545  0009D2  EF33  F005         u1470:
  7546  0009D6                     	line	127
  7547                           	
  7548                           l1764:
  7549  0009D6                     	movf	((c:___fladd@bexp)),c,w
  7550  0009D6  5017               	btfss	status,2
  7551  0009D8  A4D8               	goto	u1481
  7552  0009DA  EFF1  F004         	goto	u1480
  7553  0009DE  EFF3  F004         u1481:
  7554  0009E2                     	goto	l1770
  7555  0009E2  EFFF  F004         u1480:
  7556  0009E6                     	line	128
  7557                           	
  7558                           l1766:
  7559  0009E6                     	movlw	low(normalize32(0x0))
  7560  0009E6  0E00               	movwf	((c:?___fladd)),c
  7561  0009E8  6E05               	movlw	high(normalize32(0x0))
  7562  0009EA  0E00               	movwf	((c:?___fladd+1)),c
  7563  0009EC  6E06               	movlw	low highword(normalize32(0x0))
  7564  0009EE  0E00               	movwf	((c:?___fladd+2)),c
  7565  0009F0  6E07               	movlw	high highword(normalize32(0x0))
  7566  0009F2  0E00               	movwf	((c:?___fladd+3)),c
  7567  0009F4  6E08               	goto	l756
  7568  0009F6  EF8D  F006         	
  7569                           l1768:
  7570  0009FA                     	goto	l756
  7571  0009FA  EF8D  F006         	line	129
  7572                           	
  7573                           l755:
  7574  0009FE                     	line	132
  7575                           	
  7576                           l1770:
  7577  0009FE                     	movf	((c:___fladd@a)),c,w
  7578  0009FE  5009               	addwf	((c:___fladd@b)),c
  7579  000A00  2605               	movf	((c:___fladd@a+1)),c,w
  7580  000A02  500A               	addwfc	((c:___fladd@b+1)),c
  7581  000A04  2206               	movf	((c:___fladd@a+2)),c,w
  7582  000A06  500B               	addwfc	((c:___fladd@b+2)),c
  7583  000A08  2207               	movf	((c:___fladd@a+3)),c,w
  7584  000A0A  500C               	addwfc	((c:___fladd@b+3)),c
  7585  000A0C  2208               	line	134
  7586                           	
  7587                           l1772:
  7588  000A0E                     	
  7589                           	btfss	((c:___fladd@b+3)),c,(24)&7
  7590  000A0E  A008               	goto	u1491
  7591  000A10  EF0C  F005         	goto	u1490
  7592  000A14  EF0E  F005         u1491:
  7593  000A18                     	goto	l1824
  7594  000A18  EFE3  F005         u1490:
  7595  000A1C                     	line	135
  7596                           	
  7597                           l1774:
  7598  000A1C                     	
  7599                           	btfss	((c:___fladd@grs)),c,(0)&7
  7600  000A1C  A018               	goto	u1501
  7601  000A1E  EF13  F005         	goto	u1500
  7602  000A22  EF15  F005         u1501:
  7603  000A26                     	goto	l1778
  7604  000A26  EF1B  F005         u1500:
  7605  000A2A                     	line	136
  7606                           	
  7607                           l1776:
  7608  000A2A                     	bcf	status,0
  7609  000A2A  90D8               	rrcf	((c:___fladd@grs)),c,w
  7610  000A2C  3018               	iorlw	low(01h)
  7611  000A2E  0901               	movwf	((c:___fladd@grs)),c
  7612  000A30  6E18               	line	137
  7613                           	goto	l1780
  7614  000A32  EF1F  F005         	line	138
  7615                           	
  7616                           l758:
  7617  000A36                     	line	139
  7618                           	
  7619                           l1778:
  7620  000A36                     	bcf status,0
  7621  000A36  90D8               	rrcf	((c:___fladd@grs)),c
  7622  000A38  3218               
  7623                           	goto	l1780
  7624  000A3A  EF1F  F005         	line	140
  7625                           	
  7626                           l759:
  7627  000A3E                     	line	141
  7628                           	
  7629                           l1780:
  7630  000A3E                     	
  7631                           	btfss	((c:___fladd@b)),c,(0)&7
  7632  000A3E  A005               	goto	u1511
  7633  000A40  EF24  F005         	goto	u1510
  7634  000A44  EF26  F005         u1511:
  7635  000A48                     	goto	l1784
  7636  000A48  EF29  F005         u1510:
  7637  000A4C                     	line	142
  7638                           	
  7639                           l1782:
  7640  000A4C                     	bsf	(0+(7/8)+(c:___fladd@grs)),c,(7)&7
  7641  000A4C  8E18               	goto	l1784
  7642  000A4E  EF29  F005         	line	143
  7643                           	
  7644                           l760:
  7645  000A52                     	line	144
  7646                           	
  7647                           l1784:
  7648  000A52                     	rlcf	((c:___fladd@b+3)),c,w
  7649  000A52  3408               	rrcf	((c:___fladd@b+3)),c
  7650  000A54  3208               	rrcf	((c:___fladd@b+2)),c
  7651  000A56  3207               	rrcf	((c:___fladd@b+1)),c
  7652  000A58  3206               	rrcf	((c:___fladd@b)),c
  7653  000A5A  3205               	line	145
  7654                           	
  7655                           l1786:
  7656  000A5C                     	incf	((c:___fladd@bexp)),c
  7657  000A5C  2A17               	goto	l1824
  7658  000A5E  EFE3  F005         	line	146
  7659                           	
  7660                           l757:
  7661  000A62                     	line	148
  7662                           	goto	l1824
  7663  000A62  EFE3  F005         	line	149
  7664                           	
  7665                           l754:
  7666  000A66                     	line	153
  7667                           	
  7668                           l1788:
  7669  000A66                     		movf	((c:___fladd@a)),c,w
  7670  000A66  5009               	subwf	((c:___fladd@b)),c,w
  7671  000A68  5C05               	movf	((c:___fladd@a+1)),c,w
  7672  000A6A  500A               	subwfb	((c:___fladd@b+1)),c,w
  7673  000A6C  5806               	movf	((c:___fladd@a+2)),c,w
  7674  000A6E  500B               	subwfb	((c:___fladd@b+2)),c,w
  7675  000A70  5807               	movf	((c:___fladd@b+3)),c,w
  7676  000A72  5008               	xorlw	80h
  7677  000A74  0A80               	movwf	(??___fladd+0+0)&0ffh,c
  7678  000A76  6E0D               	movf	((c:___fladd@a+3)),c,w
  7679  000A78  500C               	xorlw	80h
  7680  000A7A  0A80               	subwfb	(??___fladd+0+0)&0ffh,c,w
  7681  000A7C  580D               	btfsc	status,0
  7682  000A7E  B0D8               	goto	u1521
  7683  000A80  EF44  F005         	goto	u1520
  7684  000A84  EF46  F005         
  7685                           u1521:
  7686  000A88                     	goto	l1798
  7687  000A88  EF84  F005         u1520:
  7688  000A8C                     	line	154
  7689                           	
  7690                           l1790:
  7691  000A8C                     	movff	(c:___fladd@b),??___fladd+0+0
  7692  000A8C  C005  F00D         	movff	(c:___fladd@b+1),??___fladd+0+0+1
  7693  000A90  C006  F00E         	movff	(c:___fladd@b+2),??___fladd+0+0+2
  7694  000A94  C007  F00F         	movff	(c:___fladd@b+3),??___fladd+0+0+3
  7695  000A98  C008  F010         	comf	(??___fladd+0+0),c
  7696  000A9C  1E0D               	comf	(??___fladd+0+1),c
  7697  000A9E  1E0E               	comf	(??___fladd+0+2),c
  7698  000AA0  1E0F               	comf	(??___fladd+0+3),c
  7699  000AA2  1E10               	incf	(??___fladd+0+0),c
  7700  000AA4  2A0D               	movlw	0
  7701  000AA6  0E00               	addwfc	(??___fladd+0+1),c
  7702  000AA8  220E               	addwfc	(??___fladd+0+2),c
  7703  000AAA  220F               	addwfc	(??___fladd+0+3),c
  7704  000AAC  2210               	movf	((c:___fladd@a)),c,w
  7705  000AAE  5009               	addwf	(??___fladd+0+0),c,w
  7706  000AB0  240D               	movwf	(??___fladd+4+0)&0ffh,c
  7707  000AB2  6E11               	movf	((c:___fladd@a+1)),c,w
  7708  000AB4  500A               	addwfc	(??___fladd+0+1),c,w
  7709  000AB6  200E               	movwf	1+(??___fladd+4+0)&0ffh,c
  7710  000AB8  6E12               	
  7711                           	movf	((c:___fladd@a+2)),c,w
  7712  000ABA  500B               	addwfc	(??___fladd+0+2),c,w
  7713  000ABC  200F               	movwf	2+(??___fladd+4+0)&0ffh,c
  7714  000ABE  6E13               	
  7715                           	movf	((c:___fladd@a+3)),c,w
  7716  000AC0  500C               	addwfc	(??___fladd+0+3),c,w
  7717  000AC2  2010               	movwf	3+(??___fladd+4+0)&0ffh,c
  7718  000AC4  6E14               	movlw	0FFh
  7719  000AC6  0EFF               	addwf	(??___fladd+4+0),c,w
  7720  000AC8  2411               	movwf	((c:___fladd@b)),c
  7721  000ACA  6E05               	movlw	0FFh
  7722  000ACC  0EFF               	addwfc	(??___fladd+4+1),c,w
  7723  000ACE  2012               	movwf	1+((c:___fladd@b)),c
  7724  000AD0  6E06               	
  7725                           	movlw	0FFh
  7726  000AD2  0EFF               	addwfc	(??___fladd+4+2),c,w
  7727  000AD4  2013               	movwf	2+((c:___fladd@b)),c
  7728  000AD6  6E07               	
  7729                           	movlw	0FFh
  7730  000AD8  0EFF               	addwfc	(??___fladd+4+3),c,w
  7731  000ADA  2014               	movwf	3+((c:___fladd@b)),c
  7732  000ADC  6E08               	line	155
  7733                           	movlw	(080h)&0ffh
  7734  000ADE  0E80               	xorwf	((c:___fladd@signs)),c
  7735  000AE0  1A15               	line	156
  7736                           	
  7737                           l1792:
  7738  000AE2                     	negf	((c:___fladd@grs)),c
  7739  000AE2  6C18               	line	157
  7740                           	
  7741                           l1794:
  7742  000AE4                     	movf	((c:___fladd@grs)),c,w
  7743  000AE4  5018               	btfss	status,2
  7744  000AE6  A4D8               	goto	u1531
  7745  000AE8  EF78  F005         	goto	u1530
  7746  000AEC  EF7A  F005         u1531:
  7747  000AF0                     	goto	l764
  7748  000AF0  EF8C  F005         u1530:
  7749  000AF4                     	line	158
  7750                           	
  7751                           l1796:
  7752  000AF4                     	movlw	low(01h)
  7753  000AF4  0E01               	addwf	((c:___fladd@b)),c
  7754  000AF6  2605               	movlw	0
  7755  000AF8  0E00               	addwfc	((c:___fladd@b+1)),c
  7756  000AFA  2206               	addwfc	((c:___fladd@b+2)),c
  7757  000AFC  2207               	addwfc	((c:___fladd@b+3)),c
  7758  000AFE  2208               	goto	l764
  7759  000B00  EF8C  F005         	line	159
  7760                           	
  7761                           l763:
  7762  000B04                     	line	160
  7763                           	goto	l764
  7764  000B04  EF8C  F005         	line	161
  7765                           	
  7766                           l762:
  7767  000B08                     	line	162
  7768                           	
  7769                           l1798:
  7770  000B08                     	movf	((c:___fladd@a)),c,w
  7771  000B08  5009               	subwf	((c:___fladd@b)),c
  7772  000B0A  5E05               	movf	((c:___fladd@a+1)),c,w
  7773  000B0C  500A               	subwfb	((c:___fladd@b+1)),c
  7774  000B0E  5A06               	movf	((c:___fladd@a+2)),c,w
  7775  000B10  500B               	subwfb	((c:___fladd@b+2)),c
  7776  000B12  5A07               	movf	((c:___fladd@a+3)),c,w
  7777  000B14  500C               	subwfb	((c:___fladd@b+3)),c
  7778  000B16  5A08               	line	163
  7779                           	
  7780                           l764:
  7781  000B18                     	line	166
  7782                           	movf	((c:___fladd@b)),c,w
  7783  000B18  5005               iorwf	((c:___fladd@b+1)),c,w
  7784  000B1A  1006               iorwf	((c:___fladd@b+2)),c,w
  7785  000B1C  1007               iorwf	((c:___fladd@b+3)),c,w
  7786  000B1E  1008               	btfss	status,2
  7787  000B20  A4D8               	goto	u1541
  7788  000B22  EF95  F005         	goto	u1540
  7789  000B26  EF97  F005         
  7790                           u1541:
  7791  000B2A                     	goto	l1822
  7792  000B2A  EFD8  F005         u1540:
  7793  000B2E                     	
  7794                           l1800:
  7795  000B2E                     	movf	((c:___fladd@grs)),c,w
  7796  000B2E  5018               	btfss	status,2
  7797  000B30  A4D8               	goto	u1551
  7798  000B32  EF9D  F005         	goto	u1550
  7799  000B36  EF9F  F005         u1551:
  7800  000B3A                     	goto	l1822
  7801  000B3A  EFD8  F005         u1550:
  7802  000B3E                     	line	167
  7803                           	
  7804                           l1802:
  7805  000B3E                     	movlw	low(normalize32(0x0))
  7806  000B3E  0E00               	movwf	((c:?___fladd)),c
  7807  000B40  6E05               	movlw	high(normalize32(0x0))
  7808  000B42  0E00               	movwf	((c:?___fladd+1)),c
  7809  000B44  6E06               	movlw	low highword(normalize32(0x0))
  7810  000B46  0E00               	movwf	((c:?___fladd+2)),c
  7811  000B48  6E07               	movlw	high highword(normalize32(0x0))
  7812  000B4A  0E00               	movwf	((c:?___fladd+3)),c
  7813  000B4C  6E08               	goto	l756
  7814  000B4E  EF8D  F006         	
  7815                           l1804:
  7816  000B52                     	goto	l756
  7817  000B52  EF8D  F006         	line	168
  7818                           	
  7819                           l765:
  7820  000B56                     	line	171
  7821                           	goto	l1822
  7822  000B56  EFD8  F005         	
  7823                           l767:
  7824  000B5A                     	line	172
  7825                           	
  7826                           l1806:
  7827  000B5A                     	bcf	status,0
  7828  000B5A  90D8               	rlcf	((c:___fladd@b)),c
  7829  000B5C  3605               	rlcf	((c:___fladd@b+1)),c
  7830  000B5E  3606               	rlcf	((c:___fladd@b+2)),c
  7831  000B60  3607               	rlcf	((c:___fladd@b+3)),c
  7832  000B62  3608               	line	173
  7833                           	
  7834                           l1808:
  7835  000B64                     	
  7836                           	btfss	((c:___fladd@grs)),c,(7)&7
  7837  000B64  AE18               	goto	u1561
  7838  000B66  EFB7  F005         	goto	u1560
  7839  000B6A  EFB9  F005         u1561:
  7840  000B6E                     	goto	l1812
  7841  000B6E  EFBC  F005         u1560:
  7842  000B72                     	line	174
  7843                           	
  7844                           l1810:
  7845  000B72                     	bsf	(0+(0/8)+(c:___fladd@b)),c,(0)&7
  7846  000B72  8005               	goto	l1812
  7847  000B74  EFBC  F005         	line	175
  7848                           	
  7849                           l768:
  7850  000B78                     	line	176
  7851                           	
  7852                           l1812:
  7853  000B78                     	
  7854                           	btfss	((c:___fladd@grs)),c,(0)&7
  7855  000B78  A018               	goto	u1571
  7856  000B7A  EFC1  F005         	goto	u1570
  7857  000B7E  EFC3  F005         u1571:
  7858  000B82                     	goto	l1816
  7859  000B82  EFC7  F005         u1570:
  7860  000B86                     	line	177
  7861                           	
  7862                           l1814:
  7863  000B86                     	bsf	status,0
  7864  000B86  80D8               	
  7865                           	rlcf	((c:___fladd@grs)),c
  7866  000B88  3618               	line	178
  7867                           	goto	l1818
  7868  000B8A  EFCB  F005         	line	179
  7869                           	
  7870                           l769:
  7871  000B8E                     	line	180
  7872                           	
  7873                           l1816:
  7874  000B8E                     	bcf status,0
  7875  000B8E  90D8               	rlcf	((c:___fladd@grs)),c
  7876  000B90  3618               
  7877                           	goto	l1818
  7878  000B92  EFCB  F005         	line	181
  7879                           	
  7880                           l770:
  7881  000B96                     	line	182
  7882                           	
  7883                           l1818:
  7884  000B96                     	movf	((c:___fladd@bexp)),c,w
  7885  000B96  5017               	btfsc	status,2
  7886  000B98  B4D8               	goto	u1581
  7887  000B9A  EFD1  F005         	goto	u1580
  7888  000B9E  EFD3  F005         u1581:
  7889  000BA2                     	goto	l1822
  7890  000BA2  EFD8  F005         u1580:
  7891  000BA6                     	line	183
  7892                           	
  7893                           l1820:
  7894  000BA6                     	decf	((c:___fladd@bexp)),c
  7895  000BA6  0617               	goto	l1822
  7896  000BA8  EFD8  F005         	line	184
  7897                           	
  7898                           l771:
  7899  000BAC                     	goto	l1822
  7900  000BAC  EFD8  F005         	line	185
  7901                           	
  7902                           l766:
  7903  000BB0                     	line	171
  7904                           	
  7905                           l1822:
  7906  000BB0                     	
  7907                           	btfss	((c:___fladd@b+2)),c,(23)&7
  7908  000BB0  AE07               	goto	u1591
  7909  000BB2  EFDD  F005         	goto	u1590
  7910  000BB6  EFDF  F005         u1591:
  7911  000BBA                     	goto	l1806
  7912  000BBA  EFAD  F005         u1590:
  7913  000BBE                     	goto	l1824
  7914  000BBE  EFE3  F005         	
  7915                           l772:
  7916  000BC2                     	goto	l1824
  7917  000BC2  EFE3  F005         	line	186
  7918                           	
  7919                           l761:
  7920  000BC6                     	line	192
  7921                           	
  7922                           l1824:
  7923  000BC6                     	movlw	low(0)
  7924  000BC6  0E00               	movwf	((c:___fladd@aexp)),c
  7925  000BC8  6E16               	line	193
  7926                           	
  7927                           l1826:
  7928  000BCA                     	
  7929                           	btfss	((c:___fladd@grs)),c,(7)&7
  7930  000BCA  AE18               	goto	u1601
  7931  000BCC  EFEA  F005         	goto	u1600
  7932  000BD0  EFEC  F005         u1601:
  7933  000BD4                     	goto	l773
  7934  000BD4  EF08  F006         u1600:
  7935  000BD8                     	line	194
  7936                           	
  7937                           l1828:
  7938  000BD8                     	movff	(c:___fladd@grs),??___fladd+0+0
  7939  000BD8  C018  F00D         	movlw	07Fh
  7940  000BDC  0E7F               	andwf	(??___fladd+0+0),c
  7941  000BDE  160D               	btfsc	status,2
  7942  000BE0  B4D8               	goto	u1611
  7943  000BE2  EFF5  F005         	goto	u1610
  7944  000BE6  EFF7  F005         u1611:
  7945  000BEA                     	goto	l774
  7946  000BEA  EFFB  F005         u1610:
  7947  000BEE                     	line	195
  7948                           	
  7949                           l1830:
  7950  000BEE                     	movlw	low(01h)
  7951  000BEE  0E01               	movwf	((c:___fladd@aexp)),c
  7952  000BF0  6E16               	line	196
  7953                           	goto	l773
  7954  000BF2  EF08  F006         	line	197
  7955                           	
  7956                           l774:
  7957  000BF6                     	line	198
  7958                           	
  7959                           	btfss	((c:___fladd@b)),c,(0)&7
  7960  000BF6  A005               	goto	u1621
  7961  000BF8  EF00  F006         	goto	u1620
  7962  000BFC  EF02  F006         u1621:
  7963  000C00                     	goto	l773
  7964  000C00  EF08  F006         u1620:
  7965  000C04                     	line	199
  7966                           	
  7967                           l1832:
  7968  000C04                     	movlw	low(01h)
  7969  000C04  0E01               	movwf	((c:___fladd@aexp)),c
  7970  000C06  6E16               	goto	l773
  7971  000C08  EF08  F006         	line	200
  7972                           	
  7973                           l776:
  7974  000C0C                     	goto	l773
  7975  000C0C  EF08  F006         	line	201
  7976                           	
  7977                           l775:
  7978  000C10                     	line	202
  7979                           	
  7980                           l773:
  7981  000C10                     	line	203
  7982                           	movf	((c:___fladd@aexp)),c,w
  7983  000C10  5016               	btfsc	status,2
  7984  000C12  B4D8               	goto	u1631
  7985  000C14  EF0E  F006         	goto	u1630
  7986  000C18  EF10  F006         u1631:
  7987  000C1C                     	goto	l1842
  7988  000C1C  EF41  F006         u1630:
  7989  000C20                     	line	204
  7990                           	
  7991                           l1834:
  7992  000C20                     	movlw	low(01h)
  7993  000C20  0E01               	addwf	((c:___fladd@b)),c
  7994  000C22  2605               	movlw	0
  7995  000C24  0E00               	addwfc	((c:___fladd@b+1)),c
  7996  000C26  2206               	addwfc	((c:___fladd@b+2)),c
  7997  000C28  2207               	addwfc	((c:___fladd@b+3)),c
  7998  000C2A  2208               	line	205
  7999                           	
  8000                           l1836:
  8001  000C2C                     	
  8002                           	btfss	((c:___fladd@b+3)),c,(24)&7
  8003  000C2C  A008               	goto	u1641
  8004  000C2E  EF1B  F006         	goto	u1640
  8005  000C32  EF1D  F006         u1641:
  8006  000C36                     	goto	l1842
  8007  000C36  EF41  F006         u1640:
  8008  000C3A                     	line	206
  8009                           	
  8010                           l1838:
  8011  000C3A                     	movff	(c:___fladd@b),??___fladd+0+0
  8012  000C3A  C005  F00D         	movff	(c:___fladd@b+1),??___fladd+0+0+1
  8013  000C3E  C006  F00E         	movff	(c:___fladd@b+2),??___fladd+0+0+2
  8014  000C42  C007  F00F         	movff	(c:___fladd@b+3),??___fladd+0+0+3
  8015  000C46  C008  F010         	rlcf	(??___fladd+0+3),c,w
  8016  000C4A  3410               	rrcf	(??___fladd+0+3),c
  8017  000C4C  3210               	rrcf	(??___fladd+0+2),c
  8018  000C4E  320F               	rrcf	(??___fladd+0+1),c
  8019  000C50  320E               	rrcf	(??___fladd+0+0),c
  8020  000C52  320D               	movff	??___fladd+0+0,(c:___fladd@b)
  8021  000C54  C00D  F005         	movff	??___fladd+0+1,(c:___fladd@b+1)
  8022  000C58  C00E  F006         	movff	??___fladd+0+2,(c:___fladd@b+2)
  8023  000C5C  C00F  F007         	movff	??___fladd+0+3,(c:___fladd@b+3)
  8024  000C60  C010  F008         	line	207
  8025                           		incf	((c:___fladd@bexp)),c,w
  8026  000C64  2817               	btfsc	status,2
  8027  000C66  B4D8               	goto	u1651
  8028  000C68  EF38  F006         	goto	u1650
  8029  000C6C  EF3A  F006         
  8030                           u1651:
  8031  000C70                     	goto	l1842
  8032  000C70  EF41  F006         u1650:
  8033  000C74                     	line	208
  8034                           	
  8035                           l1840:
  8036  000C74                     	incf	((c:___fladd@bexp)),c
  8037  000C74  2A17               	goto	l1842
  8038  000C76  EF41  F006         	line	209
  8039                           	
  8040                           l779:
  8041  000C7A                     	goto	l1842
  8042  000C7A  EF41  F006         	line	210
  8043                           	
  8044                           l778:
  8045  000C7E                     	goto	l1842
  8046  000C7E  EF41  F006         	line	211
  8047                           	
  8048                           l777:
  8049  000C82                     	line	215
  8050                           	
  8051                           l1842:
  8052  000C82                     		incf	((c:___fladd@bexp)),c,w
  8053  000C82  2817               	btfsc	status,2
  8054  000C84  B4D8               	goto	u1661
  8055  000C86  EF47  F006         	goto	u1660
  8056  000C8A  EF49  F006         
  8057                           u1661:
  8058  000C8E                     	goto	l1846
  8059  000C8E  EF53  F006         u1660:
  8060  000C92                     	
  8061                           l1844:
  8062  000C92                     	movf	((c:___fladd@bexp)),c,w
  8063  000C92  5017               	btfss	status,2
  8064  000C94  A4D8               	goto	u1671
  8065  000C96  EF4F  F006         	goto	u1670
  8066  000C9A  EF51  F006         u1671:
  8067  000C9E                     	goto	l1850
  8068  000C9E  EF69  F006         u1670:
  8069  000CA2                     	goto	l1846
  8070  000CA2  EF53  F006         	
  8071                           l782:
  8072  000CA6                     	line	216
  8073                           	
  8074                           l1846:
  8075  000CA6                     	movlw	low(0)
  8076  000CA6  0E00               	movwf	((c:___fladd@b)),c
  8077  000CA8  6E05               	movlw	high(0)
  8078  000CAA  0E00               	movwf	((c:___fladd@b+1)),c
  8079  000CAC  6E06               	movlw	low highword(0)
  8080  000CAE  0E00               	movwf	((c:___fladd@b+2)),c
  8081  000CB0  6E07               	movlw	high highword(0)
  8082  000CB2  0E00               	movwf	((c:___fladd@b+3)),c
  8083  000CB4  6E08               	line	218
  8084                           	movf	((c:___fladd@bexp)),c,w
  8085  000CB6  5017               	btfss	status,2
  8086  000CB8  A4D8               	goto	u1681
  8087  000CBA  EF61  F006         	goto	u1680
  8088  000CBE  EF63  F006         u1681:
  8089  000CC2                     	goto	l1850
  8090  000CC2  EF69  F006         u1680:
  8091  000CC6                     	line	219
  8092                           	
  8093                           l1848:
  8094  000CC6                     	movlw	low(0)
  8095  000CC6  0E00               	movwf	((c:___fladd@signs)),c
  8096  000CC8  6E15               	goto	l1850
  8097  000CCA  EF69  F006         	line	220
  8098                           	
  8099                           l783:
  8100  000CCE                     	goto	l1850
  8101  000CCE  EF69  F006         	line	221
  8102                           	
  8103                           l780:
  8104  000CD2                     	line	225
  8105                           	
  8106                           l1850:
  8107  000CD2                     	
  8108                           	btfss	((c:___fladd@bexp)),c,(0)&7
  8109  000CD2  A017               	goto	u1691
  8110  000CD4  EF6E  F006         	goto	u1690
  8111  000CD8  EF70  F006         u1691:
  8112  000CDC                     	goto	l1854
  8113  000CDC  EF73  F006         u1690:
  8114  000CE0                     	line	226
  8115                           	
  8116                           l1852:
  8117  000CE0                     	bsf	(0+(7/8)+0+((c:___fladd@b)+02h)),c,(7)&7
  8118  000CE0  8E07               	line	227
  8119                           	goto	l1856
  8120  000CE2  EF76  F006         	line	229
  8121                           	
  8122                           l784:
  8123  000CE6                     	line	230
  8124                           	
  8125                           l1854:
  8126  000CE6                     	bcf	(0+(7/8)+0+((c:___fladd@b)+02h)),c,(7)&7
  8127  000CE6  9E07               	goto	l1856
  8128  000CE8  EF76  F006         	line	231
  8129                           	
  8130                           l785:
  8131  000CEC                     	line	232
  8132                           	
  8133                           l1856:
  8134  000CEC                     	bcf	status,0
  8135  000CEC  90D8               	rrcf	((c:___fladd@bexp)),c,w
  8136  000CEE  3017               	movwf	(0+((c:___fladd@b)+03h)),c
  8137  000CF0  6E08               	line	233
  8138                           	
  8139                           l1858:
  8140  000CF2                     	
  8141                           	btfss	((c:___fladd@signs)),c,(7)&7
  8142  000CF2  AE15               	goto	u1701
  8143  000CF4  EF7E  F006         	goto	u1700
  8144  000CF8  EF80  F006         u1701:
  8145  000CFC                     	goto	l1862
  8146  000CFC  EF83  F006         u1700:
  8147  000D00                     	line	234
  8148                           	
  8149                           l1860:
  8150  000D00                     	bsf	(0+(7/8)+0+((c:___fladd@b)+03h)),c,(7)&7
  8151  000D00  8E08               	goto	l1862
  8152  000D02  EF83  F006         	line	235
  8153                           	
  8154                           l786:
  8155  000D06                     	line	236
  8156                           	
  8157                           l1862:
  8158  000D06                     	movff	(c:___fladd@b),(c:?___fladd)
  8159  000D06  C005  F005         	movff	(c:___fladd@b+1),(c:?___fladd+1)
  8160  000D0A  C006  F006         	movff	(c:___fladd@b+2),(c:?___fladd+2)
  8161  000D0E  C007  F007         	movff	(c:___fladd@b+3),(c:?___fladd+3)
  8162  000D12  C008  F008         	goto	l756
  8163  000D16  EF8D  F006         	
  8164                           l1864:
  8165  000D1A                     	line	237
  8166                           	
  8167                           l756:
  8168  000D1A                     	return	;funcret
  8169  000D1A  0012               	opt stack 0
  8170                           GLOBAL	__end_of___fladd
  8171                           	__end_of___fladd:
  8172  000D1C                     	signat	___fladd,8316
  8173                           	global	_TMR1Config
  8174                           
  8175 ;; *************** function _TMR1Config *****************
  8176 ;; Defined at:
  8177 ;;		line 56 in file "main.c"
  8178 ;; Parameters:    Size  Location     Type
  8179 ;;		None
  8180 ;; Auto vars:     Size  Location     Type
  8181 ;;		None
  8182 ;; Return value:  Size  Location     Type
  8183 ;;                  1    wreg      void 
  8184 ;; Registers used:
  8185 ;;		None
  8186 ;; Tracked objects:
  8187 ;;		On entry : 0/0
  8188 ;;		On exit  : 0/0
  8189 ;;		Unchanged: 0/0
  8190 ;; Data sizes:     COMRAM   BANK0   BANK1   BANK2   BANK3   BANK4   BANK5   BANK6   BANK7
  8191 ;;      Params:         0       0       0       0       0       0       0       0       0
  8192 ;;      Locals:         0       0       0       0       0       0       0       0       0
  8193 ;;      Temps:          0       0       0       0       0       0       0       0       0
  8194 ;;      Totals:         0       0       0       0       0       0       0       0       0
  8195 ;;Total ram usage:        0 bytes
  8196 ;; Hardware stack levels used:    1
  8197 ;; Hardware stack levels required when called:    2
  8198 ;; This function calls:
  8199 ;;		Nothing
  8200 ;; This function is called by:
  8201 ;;		_main
  8202 ;; This function uses a non-reentrant model
  8203 ;;
  8204                           psect	text16,class=CODE,space=0,reloc=2,group=0
  8205                           	file	"main.c"
  8206                           	line	56
  8207                           global __ptext16
  8208                           __ptext16:
  8209  002354                     psect	text16
  8210                           	file	"main.c"
  8211                           	line	56
  8212                           	global	__size_of_TMR1Config
  8213                           	__size_of_TMR1Config	equ	__end_of_TMR1Config-_TMR1Config
  8214  0000                     	
  8215                           _TMR1Config:
  8216  002354                     ;incstack = 0
  8217                           	opt	stack 28
  8218                           	line	57
  8219                           	
  8220                           l2102:
  8221  002354                     ;main.c: 57:     T1CONbits.TMR1CS=0;
  8222                           	bcf	((c:4045)),c,1	;volatile
  8223  002354  92CD               	line	59
  8224                           ;main.c: 59:     T1CONbits.RD16=1;
  8225                           	bsf	((c:4045)),c,7	;volatile
  8226  002356  8ECD               	line	60
  8227                           ;main.c: 60:     T1CONbits.T1OSCEN=0;
  8228                           	bcf	((c:4045)),c,3	;volatile
  8229  002358  96CD               	line	61
  8230                           ;main.c: 61:     T1CONbits.T1CKPS0=1;
  8231                           	bsf	((c:4045)),c,4	;volatile
  8232  00235A  88CD               	line	62
  8233                           ;main.c: 62:     T1CONbits.T1CKPS1=1;
  8234                           	bsf	((c:4045)),c,5	;volatile
  8235  00235C  8ACD               	line	63
  8236                           ;main.c: 63:     T1CONbits.T1RUN=0;
  8237                           	bcf	((c:4045)),c,6	;volatile
  8238  00235E  9CCD               	line	65
  8239                           ;main.c: 65:     TMR1ON=1;
  8240                           	bsf	c:(32360/8),(32360)&7	;volatile
  8241  002360  80CD               	line	67
  8242                           	
  8243                           l84:
  8244  002362                     	return	;funcret
  8245  002362  0012               	opt stack 0
  8246                           GLOBAL	__end_of_TMR1Config
  8247                           	__end_of_TMR1Config:
  8248  002364                     	signat	_TMR1Config,89
  8249                           	global	_Stop
  8250                           
  8251 ;; *************** function _Stop *****************
  8252 ;; Defined at:
  8253 ;;		line 243 in file "main.c"
  8254 ;; Parameters:    Size  Location     Type
  8255 ;;		None
  8256 ;; Auto vars:     Size  Location     Type
  8257 ;;		None
  8258 ;; Return value:  Size  Location     Type
  8259 ;;                  1    wreg      void 
  8260 ;; Registers used:
  8261 ;;		None
  8262 ;; Tracked objects:
  8263 ;;		On entry : 0/0
  8264 ;;		On exit  : 0/0
  8265 ;;		Unchanged: 0/0
  8266 ;; Data sizes:     COMRAM   BANK0   BANK1   BANK2   BANK3   BANK4   BANK5   BANK6   BANK7
  8267 ;;      Params:         0       0       0       0       0       0       0       0       0
  8268 ;;      Locals:         0       0       0       0       0       0       0       0       0
  8269 ;;      Temps:          0       0       0       0       0       0       0       0       0
  8270 ;;      Totals:         0       0       0       0       0       0       0       0       0
  8271 ;;Total ram usage:        0 bytes
  8272 ;; Hardware stack levels used:    1
  8273 ;; Hardware stack levels required when called:    2
  8274 ;; This function calls:
  8275 ;;		Nothing
  8276 ;; This function is called by:
  8277 ;;		_main
  8278 ;; This function uses a non-reentrant model
  8279 ;;
  8280                           psect	text17,class=CODE,space=0,reloc=2,group=0
  8281                           	line	243
  8282                           global __ptext17
  8283                           __ptext17:
  8284  002364                     psect	text17
  8285                           	file	"main.c"
  8286                           	line	243
  8287                           	global	__size_of_Stop
  8288                           	__size_of_Stop	equ	__end_of_Stop-_Stop
  8289  0000                     	
  8290                           _Stop:
  8291  002364                     ;incstack = 0
  8292                           	opt	stack 28
  8293                           	line	245
  8294                           	
  8295                           l2158:
  8296  002364                     ;main.c: 245:     LATAbits.LA1=1;
  8297                           	bsf	((c:3977)),c,1	;volatile
  8298  002364  8289               	line	246
  8299                           ;main.c: 246:     LATAbits.LA2=1;
  8300                           	bsf	((c:3977)),c,2	;volatile
  8301  002366  8489               	line	249
  8302                           ;main.c: 249:     LATBbits.LB4=1;
  8303                           	bsf	((c:3978)),c,4	;volatile
  8304  002368  888A               	line	250
  8305                           ;main.c: 250:     LATBbits.LB5=1;
  8306                           	bsf	((c:3978)),c,5	;volatile
  8307  00236A  8A8A               	line	251
  8308                           	
  8309                           l164:
  8310  00236C                     	return	;funcret
  8311  00236C  0012               	opt stack 0
  8312                           GLOBAL	__end_of_Stop
  8313                           	__end_of_Stop:
  8314  00236E                     	signat	_Stop,89
  8315                           	global	_Right
  8316                           
  8317 ;; *************** function _Right *****************
  8318 ;; Defined at:
  8319 ;;		line 234 in file "main.c"
  8320 ;; Parameters:    Size  Location     Type
  8321 ;;		None
  8322 ;; Auto vars:     Size  Location     Type
  8323 ;;		None
  8324 ;; Return value:  Size  Location     Type
  8325 ;;                  1    wreg      void 
  8326 ;; Registers used:
  8327 ;;		None
  8328 ;; Tracked objects:
  8329 ;;		On entry : 0/0
  8330 ;;		On exit  : 0/0
  8331 ;;		Unchanged: 0/0
  8332 ;; Data sizes:     COMRAM   BANK0   BANK1   BANK2   BANK3   BANK4   BANK5   BANK6   BANK7
  8333 ;;      Params:         0       0       0       0       0       0       0       0       0
  8334 ;;      Locals:         0       0       0       0       0       0       0       0       0
  8335 ;;      Temps:          0       0       0       0       0       0       0       0       0
  8336 ;;      Totals:         0       0       0       0       0       0       0       0       0
  8337 ;;Total ram usage:        0 bytes
  8338 ;; Hardware stack levels used:    1
  8339 ;; Hardware stack levels required when called:    2
  8340 ;; This function calls:
  8341 ;;		Nothing
  8342 ;; This function is called by:
  8343 ;;		_main
  8344 ;; This function uses a non-reentrant model
  8345 ;;
  8346                           psect	text18,class=CODE,space=0,reloc=2,group=0
  8347                           	line	234
  8348                           global __ptext18
  8349                           __ptext18:
  8350  00236E                     psect	text18
  8351                           	file	"main.c"
  8352                           	line	234
  8353                           	global	__size_of_Right
  8354                           	__size_of_Right	equ	__end_of_Right-_Right
  8355  0000                     	
  8356                           _Right:
  8357  00236E                     ;incstack = 0
  8358                           	opt	stack 28
  8359                           	line	236
  8360                           	
  8361                           l2156:
  8362  00236E                     ;main.c: 236:     LATAbits.LA1=1;
  8363                           	bsf	((c:3977)),c,1	;volatile
  8364  00236E  8289               	line	237
  8365                           ;main.c: 237:     LATAbits.LA2=1;
  8366                           	bsf	((c:3977)),c,2	;volatile
  8367  002370  8489               	line	240
  8368                           ;main.c: 240:     LATBbits.LB4=1;
  8369                           	bsf	((c:3978)),c,4	;volatile
  8370  002372  888A               	line	241
  8371                           ;main.c: 241:     LATBbits.LB5=0;
  8372                           	bcf	((c:3978)),c,5	;volatile
  8373  002374  9A8A               	line	242
  8374                           	
  8375                           l161:
  8376  002376                     	return	;funcret
  8377  002376  0012               	opt stack 0
  8378                           GLOBAL	__end_of_Right
  8379                           	__end_of_Right:
  8380  002378                     	signat	_Right,89
  8381                           	global	_Reverse
  8382                           
  8383 ;; *************** function _Reverse *****************
  8384 ;; Defined at:
  8385 ;;		line 252 in file "main.c"
  8386 ;; Parameters:    Size  Location     Type
  8387 ;;		None
  8388 ;; Auto vars:     Size  Location     Type
  8389 ;;		None
  8390 ;; Return value:  Size  Location     Type
  8391 ;;                  1    wreg      void 
  8392 ;; Registers used:
  8393 ;;		None
  8394 ;; Tracked objects:
  8395 ;;		On entry : 0/0
  8396 ;;		On exit  : 0/0
  8397 ;;		Unchanged: 0/0
  8398 ;; Data sizes:     COMRAM   BANK0   BANK1   BANK2   BANK3   BANK4   BANK5   BANK6   BANK7
  8399 ;;      Params:         0       0       0       0       0       0       0       0       0
  8400 ;;      Locals:         0       0       0       0       0       0       0       0       0
  8401 ;;      Temps:          0       0       0       0       0       0       0       0       0
  8402 ;;      Totals:         0       0       0       0       0       0       0       0       0
  8403 ;;Total ram usage:        0 bytes
  8404 ;; Hardware stack levels used:    1
  8405 ;; Hardware stack levels required when called:    2
  8406 ;; This function calls:
  8407 ;;		Nothing
  8408 ;; This function is called by:
  8409 ;;		_main
  8410 ;; This function uses a non-reentrant model
  8411 ;;
  8412                           psect	text19,class=CODE,space=0,reloc=2,group=0
  8413                           	line	252
  8414                           global __ptext19
  8415                           __ptext19:
  8416  002378                     psect	text19
  8417                           	file	"main.c"
  8418                           	line	252
  8419                           	global	__size_of_Reverse
  8420                           	__size_of_Reverse	equ	__end_of_Reverse-_Reverse
  8421  0000                     	
  8422                           _Reverse:
  8423  002378                     ;incstack = 0
  8424                           	opt	stack 28
  8425                           	line	253
  8426                           	
  8427                           l2160:
  8428  002378                     ;main.c: 253:     LATAbits.LA1=1;
  8429                           	bsf	((c:3977)),c,1	;volatile
  8430  002378  8289               	line	254
  8431                           ;main.c: 254:     LATAbits.LA2=0;
  8432                           	bcf	((c:3977)),c,2	;volatile
  8433  00237A  9489               	line	256
  8434                           ;main.c: 256:     LATBbits.LB4=0;
  8435                           	bcf	((c:3978)),c,4	;volatile
  8436  00237C  988A               	line	257
  8437                           ;main.c: 257:     LATBbits.LB5=1;
  8438                           	bsf	((c:3978)),c,5	;volatile
  8439  00237E  8A8A               	line	258
  8440                           	
  8441                           l167:
  8442  002380                     	return	;funcret
  8443  002380  0012               	opt stack 0
  8444                           GLOBAL	__end_of_Reverse
  8445                           	__end_of_Reverse:
  8446  002382                     	signat	_Reverse,89
  8447                           	global	_Left
  8448                           
  8449 ;; *************** function _Left *****************
  8450 ;; Defined at:
  8451 ;;		line 224 in file "main.c"
  8452 ;; Parameters:    Size  Location     Type
  8453 ;;		None
  8454 ;; Auto vars:     Size  Location     Type
  8455 ;;		None
  8456 ;; Return value:  Size  Location     Type
  8457 ;;                  1    wreg      void 
  8458 ;; Registers used:
  8459 ;;		None
  8460 ;; Tracked objects:
  8461 ;;		On entry : 0/0
  8462 ;;		On exit  : 0/0
  8463 ;;		Unchanged: 0/0
  8464 ;; Data sizes:     COMRAM   BANK0   BANK1   BANK2   BANK3   BANK4   BANK5   BANK6   BANK7
  8465 ;;      Params:         0       0       0       0       0       0       0       0       0
  8466 ;;      Locals:         0       0       0       0       0       0       0       0       0
  8467 ;;      Temps:          0       0       0       0       0       0       0       0       0
  8468 ;;      Totals:         0       0       0       0       0       0       0       0       0
  8469 ;;Total ram usage:        0 bytes
  8470 ;; Hardware stack levels used:    1
  8471 ;; Hardware stack levels required when called:    2
  8472 ;; This function calls:
  8473 ;;		Nothing
  8474 ;; This function is called by:
  8475 ;;		_main
  8476 ;; This function uses a non-reentrant model
  8477 ;;
  8478                           psect	text20,class=CODE,space=0,reloc=2,group=0
  8479                           	line	224
  8480                           global __ptext20
  8481                           __ptext20:
  8482  002382                     psect	text20
  8483                           	file	"main.c"
  8484                           	line	224
  8485                           	global	__size_of_Left
  8486                           	__size_of_Left	equ	__end_of_Left-_Left
  8487  0000                     	
  8488                           _Left:
  8489  002382                     ;incstack = 0
  8490                           	opt	stack 28
  8491                           	line	226
  8492                           	
  8493                           l2154:
  8494  002382                     ;main.c: 226:     LATAbits.LA1=0;
  8495                           	bcf	((c:3977)),c,1	;volatile
  8496  002382  9289               	line	227
  8497                           ;main.c: 227:     LATAbits.LA2=1;
  8498                           	bsf	((c:3977)),c,2	;volatile
  8499  002384  8489               	line	230
  8500                           ;main.c: 230:     LATBbits.LB4=1;
  8501                           	bsf	((c:3978)),c,4	;volatile
  8502  002386  888A               	line	231
  8503                           ;main.c: 231:     LATBbits.LB5=1;
  8504                           	bsf	((c:3978)),c,5	;volatile
  8505  002388  8A8A               	line	232
  8506                           	
  8507                           l158:
  8508  00238A                     	return	;funcret
  8509  00238A  0012               	opt stack 0
  8510                           GLOBAL	__end_of_Left
  8511                           	__end_of_Left:
  8512  00238C                     	signat	_Left,89
  8513                           	global	_Forward
  8514                           
  8515 ;; *************** function _Forward *****************
  8516 ;; Defined at:
  8517 ;;		line 214 in file "main.c"
  8518 ;; Parameters:    Size  Location     Type
  8519 ;;		None
  8520 ;; Auto vars:     Size  Location     Type
  8521 ;;		None
  8522 ;; Return value:  Size  Location     Type
  8523 ;;                  1    wreg      void 
  8524 ;; Registers used:
  8525 ;;		None
  8526 ;; Tracked objects:
  8527 ;;		On entry : 0/0
  8528 ;;		On exit  : 0/0
  8529 ;;		Unchanged: 0/0
  8530 ;; Data sizes:     COMRAM   BANK0   BANK1   BANK2   BANK3   BANK4   BANK5   BANK6   BANK7
  8531 ;;      Params:         0       0       0       0       0       0       0       0       0
  8532 ;;      Locals:         0       0       0       0       0       0       0       0       0
  8533 ;;      Temps:          0       0       0       0       0       0       0       0       0
  8534 ;;      Totals:         0       0       0       0       0       0       0       0       0
  8535 ;;Total ram usage:        0 bytes
  8536 ;; Hardware stack levels used:    1
  8537 ;; Hardware stack levels required when called:    2
  8538 ;; This function calls:
  8539 ;;		Nothing
  8540 ;; This function is called by:
  8541 ;;		_main
  8542 ;; This function uses a non-reentrant model
  8543 ;;
  8544                           psect	text21,class=CODE,space=0,reloc=2,group=0
  8545                           	line	214
  8546                           global __ptext21
  8547                           __ptext21:
  8548  00238C                     psect	text21
  8549                           	file	"main.c"
  8550                           	line	214
  8551                           	global	__size_of_Forward
  8552                           	__size_of_Forward	equ	__end_of_Forward-_Forward
  8553  0000                     	
  8554                           _Forward:
  8555  00238C                     ;incstack = 0
  8556                           	opt	stack 28
  8557                           	line	216
  8558                           	
  8559                           l2152:
  8560  00238C                     ;main.c: 216:     LATAbits.LA1=0;
  8561                           	bcf	((c:3977)),c,1	;volatile
  8562  00238C  9289               	line	217
  8563                           ;main.c: 217:     LATAbits.LA2=1;
  8564                           	bsf	((c:3977)),c,2	;volatile
  8565  00238E  8489               	line	220
  8566                           ;main.c: 220:     LATBbits.LB4=1;
  8567                           	bsf	((c:3978)),c,4	;volatile
  8568  002390  888A               	line	221
  8569                           ;main.c: 221:     LATBbits.LB5=0;
  8570                           	bcf	((c:3978)),c,5	;volatile
  8571  002392  9A8A               	line	222
  8572                           	
  8573                           l155:
  8574  002394                     	return	;funcret
  8575  002394  0012               	opt stack 0
  8576                           GLOBAL	__end_of_Forward
  8577                           	__end_of_Forward:
  8578  002396                     	signat	_Forward,89
  8579                           	global	_isrPlayer1
  8580                           
  8581 ;; *************** function _isrPlayer1 *****************
  8582 ;; Defined at:
  8583 ;;		line 97 in file "main.c"
  8584 ;; Parameters:    Size  Location     Type
  8585 ;;		None
  8586 ;; Auto vars:     Size  Location     Type
  8587 ;;		None
  8588 ;; Return value:  Size  Location     Type
  8589 ;;                  1    wreg      void 
  8590 ;; Registers used:
  8591 ;;		status,2, status,0, cstack
  8592 ;; Tracked objects:
  8593 ;;		On entry : 0/0
  8594 ;;		On exit  : 0/0
  8595 ;;		Unchanged: 0/0
  8596 ;; Data sizes:     COMRAM   BANK0   BANK1   BANK2   BANK3   BANK4   BANK5   BANK6   BANK7
  8597 ;;      Params:         0       0       0       0       0       0       0       0       0
  8598 ;;      Locals:         0       0       0       0       0       0       0       0       0
  8599 ;;      Temps:          0       0       0       0       0       0       0       0       0
  8600 ;;      Totals:         0       0       0       0       0       0       0       0       0
  8601 ;;Total ram usage:        0 bytes
  8602 ;; Hardware stack levels used:    1
  8603 ;; Hardware stack levels required when called:    1
  8604 ;; This function calls:
  8605 ;;		_sumTmr1Overflow
  8606 ;; This function is called by:
  8607 ;;		Interrupt level 2
  8608 ;; This function uses a non-reentrant model
  8609 ;;
  8610                           psect	intcode,class=CODE,space=0,reloc=2
  8611                           global __pintcode
  8612                           __pintcode:
  8613  000008                     psect	intcode
  8614                           	file	"main.c"
  8615                           	line	97
  8616                           	global	__size_of_isrPlayer1
  8617                           	__size_of_isrPlayer1	equ	__end_of_isrPlayer1-_isrPlayer1
  8618  0000                     	
  8619                           _isrPlayer1:
  8620  000008                     ;incstack = 0
  8621                           	opt	stack 26
  8622                           	bsf int$flags,1,c ;set compiler interrupt flag (level 2)
  8623  000008  825D               	global	int_func
  8624                           	call	int_func,f	;refresh shadow registers
  8625  00000A  ED92  F011         psect	intcode_body,class=CODE,space=0,reloc=2
  8626                           global __pintcode_body
  8627                           __pintcode_body:
  8628  002324                     int_func:
  8629  002324                     
  8630                           	pop	; remove dummy address from shadow register refresh
  8631  002324  0006               	line	98
  8632                           	
  8633                           i2l1402:
  8634  002326                     ;main.c: 98:     if (TMR1IF==1){
  8635                           	btfss	c:(31984/8),(31984)&7	;volatile
  8636  002326  A09E               	goto	i2u87_41
  8637  002328  EF98  F011         	goto	i2u87_40
  8638  00232C  EF9A  F011         i2u87_41:
  8639  002330                     	goto	i2l108
  8640  002330  EF9F  F011         i2u87_40:
  8641  002334                     	line	99
  8642                           	
  8643                           i2l1404:
  8644  002334                     ;main.c: 99:         sumTmr1Overflow();
  8645                           	call	_sumTmr1Overflow	;wreg free
  8646  002334  ECCB  F011         	line	100
  8647                           	
  8648                           i2l1406:
  8649  002338                     ;main.c: 100:         TMR1IF=0;
  8650                           	bcf	c:(31984/8),(31984)&7	;volatile
  8651  002338  909E               	goto	i2l108
  8652  00233A  EF9F  F011         	line	101
  8653                           ;main.c: 101:     }
  8654                           	
  8655                           i2l107:
  8656  00233E                     	line	102
  8657                           	
  8658                           i2l108:
  8659  00233E                     	bcf int$flags,1,c ;clear compiler interrupt flag (level 2)
  8660  00233E  925D               	retfie f
  8661  002340  0011               	opt stack 0
  8662                           GLOBAL	__end_of_isrPlayer1
  8663                           	__end_of_isrPlayer1:
  8664  002342                     	signat	_isrPlayer1,89
  8665                           	global	_sumTmr1Overflow
  8666                           
  8667 ;; *************** function _sumTmr1Overflow *****************
  8668 ;; Defined at:
  8669 ;;		line 93 in file "main.c"
  8670 ;; Parameters:    Size  Location     Type
  8671 ;;		None
  8672 ;; Auto vars:     Size  Location     Type
  8673 ;;		None
  8674 ;; Return value:  Size  Location     Type
  8675 ;;                  1    wreg      void 
  8676 ;; Registers used:
  8677 ;;		status,2, status,0
  8678 ;; Tracked objects:
  8679 ;;		On entry : 0/0
  8680 ;;		On exit  : 0/0
  8681 ;;		Unchanged: 0/0
  8682 ;; Data sizes:     COMRAM   BANK0   BANK1   BANK2   BANK3   BANK4   BANK5   BANK6   BANK7
  8683 ;;      Params:         0       0       0       0       0       0       0       0       0
  8684 ;;      Locals:         0       0       0       0       0       0       0       0       0
  8685 ;;      Temps:          0       0       0       0       0       0       0       0       0
  8686 ;;      Totals:         0       0       0       0       0       0       0       0       0
  8687 ;;Total ram usage:        0 bytes
  8688 ;; Hardware stack levels used:    1
  8689 ;; This function calls:
  8690 ;;		Nothing
  8691 ;; This function is called by:
  8692 ;;		_isrPlayer1
  8693 ;; This function uses a non-reentrant model
  8694 ;;
  8695                           psect	text23,class=CODE,space=0,reloc=2,group=0
  8696                           	line	93
  8697                           global __ptext23
  8698                           __ptext23:
  8699  002396                     psect	text23
  8700                           	file	"main.c"
  8701                           	line	93
  8702                           	global	__size_of_sumTmr1Overflow
  8703                           	__size_of_sumTmr1Overflow	equ	__end_of_sumTmr1Overflow-_sumTmr1Overflow
  8704  0000                     	
  8705                           _sumTmr1Overflow:
  8706  002396                     ;incstack = 0
  8707                           	opt	stack 26
  8708                           	line	94
  8709                           	
  8710                           i2l1338:
  8711  002396                     ;main.c: 94:     tmr1Overflow++;
  8712                           	infsnz	((c:_tmr1Overflow)),c
  8713  002396  4A55               	incf	((c:_tmr1Overflow+1)),c
  8714  002398  2A56               	line	95
  8715                           	
  8716                           i2l102:
  8717  00239A                     	return	;funcret
  8718  00239A  0012               	opt stack 0
  8719                           GLOBAL	__end_of_sumTmr1Overflow
  8720                           	__end_of_sumTmr1Overflow:
  8721  00239C                     	signat	_sumTmr1Overflow,89
  8722                           	GLOBAL	__activetblptr
  8723                           __activetblptr	EQU	0
  8724  0000                     	psect	intsave_regs,class=BIGRAM,space=1,noexec
  8725                           	PSECT	rparam,class=COMRAM,space=1,noexec
  8726                           	GLOBAL	__Lrparam
  8727                           	FNCONF	rparam,??,?
  8728                           	GLOBAL	___rparam_used
  8729                           	___rparam_used EQU 1
  8730  0000                     	GLOBAL	___param_bank
  8731                           	___param_bank EQU 0
  8732  0000                     GLOBAL	__Lparam, __Hparam
  8733                           GLOBAL	__Lrparam, __Hrparam
  8734                           __Lparam	EQU	__Lrparam
  8735  0000                     __Hparam	EQU	__Hrparam
  8736  0000                            psect   temp,common,ovrld,class=COMRAM,space=1
  8737                           	global	btemp
  8738                           btemp:
  8739  00005D                     	ds	1
  8740  00005D                     	global	int$flags
  8741                           	int$flags	set btemp
  8742  0000                     	global	wtemp8
  8743                           	wtemp8 set btemp+1
  8744  0000                     	global	ttemp5
  8745                           	ttemp5 set btemp+1
  8746  0000                     	global	ttemp6
  8747                           	ttemp6 set btemp+4
  8748  0000                     	global	ttemp7
  8749                           	ttemp7 set btemp+8
  8750  0000                     	end


Data Sizes:
    Strings     0
    Constant    0
    Data        644
    BSS         144
    Persistent  0
    Stack       0

Auto Spaces:
    Space          Size  Autos    Used
    COMRAM           94     72      92
    BANK0           160     68      68
    BANK1           256      0     256
    BANK2           256      0     256
    BANK3           244      0     128
    BANK4           256      0     128
    BANK5           256      0       0
    BANK6           256      0       0
    BANK7           256      0       0

Pointer List with Targets:

    None.

Critical Paths under _main in COMRAM

    _main->_compareSignals
    _getTimeUS->___xxtofl
    ___xxtofl->___lmul
    _compareSignals->_compareChannelDown
    _compareSignals->_compareChannelUp
    _compareSignals->_compareTurnOn
    _compareSignals->_compareVolumeDown
    _compareSignals->_compareVolumeUp
    _compareVolumeUp->___fltol
    _compareVolumeDown->___fltol
    _compareTurnOn->___fltol
    _compareChannelUp->___fltol
    _compareChannelDown->___fltol
    ___fltol->___fladd
    ___fladd->___flneg

Critical Paths under _isrPlayer1 in COMRAM

    None.

Critical Paths under _main in BANK0

    _compareSignals->_compareChannelDown
    _compareSignals->_compareChannelUp
    _compareSignals->_compareVolumeDown
    _compareSignals->_compareVolumeUp

Critical Paths under _isrPlayer1 in BANK0

    None.

Critical Paths under _main in BANK1

    None.

Critical Paths under _isrPlayer1 in BANK1

    None.

Critical Paths under _main in BANK2

    None.

Critical Paths under _isrPlayer1 in BANK2

    None.

Critical Paths under _main in BANK3

    None.

Critical Paths under _isrPlayer1 in BANK3

    None.

Critical Paths under _main in BANK4

    None.

Critical Paths under _isrPlayer1 in BANK4

    None.

Critical Paths under _main in BANK5

    None.

Critical Paths under _isrPlayer1 in BANK5

    None.

Critical Paths under _main in BANK6

    None.

Critical Paths under _isrPlayer1 in BANK6

    None.

Critical Paths under _main in BANK7

    None.

Critical Paths under _isrPlayer1 in BANK7

    None.

Call Graph Tables:

 ---------------------------------------------------------------------------------
 (Depth) Function   	        Calls       Base Space   Used Autos Params    Refs
 ---------------------------------------------------------------------------------
 (0) _main                                                 2     2      0   36498
                                             70 COMRAM     2     2      0
                            _Forward
                               _Left
                            _Reverse
                              _Right
                               _Stop
                         _TMR1Config
                     _compareSignals
                          _configPIC
                          _getTimeUS
                          _initgetUS
 ---------------------------------------------------------------------------------
 (1) _initgetUS                                            0     0      0       0
 ---------------------------------------------------------------------------------
 (1) _getTimeUS                                            4     0      4     920
                                             26 COMRAM     4     0      4
                             ___lmul
                           ___xxtofl
 ---------------------------------------------------------------------------------
 (2) ___xxtofl                                            14    10      4     550
                                             12 COMRAM    14    10      4
                             ___lmul (ARG)
 ---------------------------------------------------------------------------------
 (2) ___lmul                                              12     4      8     370
                                              0 COMRAM    12     4      8
 ---------------------------------------------------------------------------------
 (1) _configPIC                                            0     0      0       0
 ---------------------------------------------------------------------------------
 (1) _compareSignals                                      30    28      2   35467
                                             40 COMRAM    30    28      2
                 _compareChannelDown
                   _compareChannelUp
                      _compareTurnOn
                  _compareVolumeDown
                    _compareVolumeUp
 ---------------------------------------------------------------------------------
 (2) _compareVolumeUp                                     74    72      2    7005
                                             34 COMRAM     6     4      2
                                              0 BANK0     68    68      0
                            ___fladd
                             ___flge
                            ___flneg
                            ___fltol
 ---------------------------------------------------------------------------------
 (2) _compareVolumeDown                                   74    72      2    7005
                                             34 COMRAM     6     4      2
                                              0 BANK0     68    68      0
                            ___fladd
                             ___flge
                            ___flneg
                            ___fltol
 ---------------------------------------------------------------------------------
 (2) _compareTurnOn                                       70    68      2    7005
                                             34 COMRAM     6     4      2
                                              0 BANK0     64    64      0
                            ___fladd
                             ___flge
                            ___flneg
                            ___fltol
 ---------------------------------------------------------------------------------
 (2) _compareChannelUp                                    74    72      2    7005
                                             34 COMRAM     6     4      2
                                              0 BANK0     68    68      0
                            ___fladd
                             ___flge
                            ___flneg
                            ___fltol
 ---------------------------------------------------------------------------------
 (2) _compareChannelDown                                  74    72      2    7005
                                             34 COMRAM     6     4      2
                                              0 BANK0     68    68      0
                            ___fladd
                             ___flge
                            ___flneg
                            ___fltol
 ---------------------------------------------------------------------------------
 (3) ___fltol                                             10     6      4     989
                                             24 COMRAM    10     6      4
                            ___fladd (ARG)
                            ___flneg (ARG)
 ---------------------------------------------------------------------------------
 (3) ___flneg                                              4     0      4     805
                                              0 COMRAM     4     0      4
 ---------------------------------------------------------------------------------
 (3) ___flge                                              12     4      8    1094
                                              0 COMRAM    12     4      8
 ---------------------------------------------------------------------------------
 (3) ___fladd                                             20    12      8    3756
                                              4 COMRAM    20    12      8
                            ___flneg (ARG)
 ---------------------------------------------------------------------------------
 (1) _TMR1Config                                           0     0      0       0
 ---------------------------------------------------------------------------------
 (1) _Stop                                                 0     0      0       0
 ---------------------------------------------------------------------------------
 (1) _Right                                                0     0      0       0
 ---------------------------------------------------------------------------------
 (1) _Reverse                                              0     0      0       0
 ---------------------------------------------------------------------------------
 (1) _Left                                                 0     0      0       0
 ---------------------------------------------------------------------------------
 (1) _Forward                                              0     0      0       0
 ---------------------------------------------------------------------------------
 Estimated maximum stack depth 3
 ---------------------------------------------------------------------------------
 (Depth) Function   	        Calls       Base Space   Used Autos Params    Refs
 ---------------------------------------------------------------------------------
 (4) _isrPlayer1                                           0     0      0       0
                    _sumTmr1Overflow
 ---------------------------------------------------------------------------------
 (5) _sumTmr1Overflow                                      0     0      0       0
 ---------------------------------------------------------------------------------
 Estimated maximum stack depth 5
 ---------------------------------------------------------------------------------

 Call Graph Graphs:

 _main (ROOT)
   _Forward
   _Left
   _Reverse
   _Right
   _Stop
   _TMR1Config
   _compareSignals
     _compareChannelDown
       ___fladd
         ___flneg (ARG)
       ___flge
       ___flneg
       ___fltol
         ___fladd (ARG)
           ___flneg (ARG)
         ___flneg (ARG)
     _compareChannelUp
       ___fladd
         ___flneg (ARG)
       ___flge
       ___flneg
       ___fltol
         ___fladd (ARG)
           ___flneg (ARG)
         ___flneg (ARG)
     _compareTurnOn
       ___fladd
         ___flneg (ARG)
       ___flge
       ___flneg
       ___fltol
         ___fladd (ARG)
           ___flneg (ARG)
         ___flneg (ARG)
     _compareVolumeDown
       ___fladd
         ___flneg (ARG)
       ___flge
       ___flneg
       ___fltol
         ___fladd (ARG)
           ___flneg (ARG)
         ___flneg (ARG)
     _compareVolumeUp
       ___fladd
         ___flneg (ARG)
       ___flge
       ___flneg
       ___fltol
         ___fladd (ARG)
           ___flneg (ARG)
         ___flneg (ARG)
   _configPIC
   _getTimeUS
     ___lmul
     ___xxtofl
       ___lmul (ARG)
   _initgetUS

 _isrPlayer1 (ROOT)
   _sumTmr1Overflow

 Address spaces:
Name               Size   Autos  Total    Cost      Usage
BIGRAM_1           400      0       0      21        0.0%
BIGRAM             3F3      0       0      22        0.0%
EEDATA             100      0       0       0        0.0%
BITBANK7           100      0       0      19        0.0%
BANK7              100      0       0      20        0.0%
BITBANK6           100      0       0      17        0.0%
BANK6              100      0       0      18        0.0%
BITBANK5           100      0       0      15        0.0%
BANK5              100      0       0      16        0.0%
BITBANK4           100      0       0      13        0.0%
BANK4              100      0      80      14       50.0%
BITBANK2           100      0       0       8        0.0%
BANK2              100      0     100       9      100.0%
BITBANK1           100      0       0       6        0.0%
BANK1              100      0     100       7      100.0%
BITBANK3            F4      0       0      12        0.0%
BANK3               F4      0      80      10       52.5%
BITBANK0            A0      0       0       4        0.0%
BANK0               A0     44      44       5       42.5%
BITCOMRAM           5E      0       0       0        0.0%
COMRAM              5E     48      5C       1       97.9%
BITSFR_5             0      0       0     200        0.0%
SFR_5                0      0       0     200        0.0%
BITSFR_4             0      0       0     200        0.0%
SFR_4                0      0       0     200        0.0%
BITSFR_3             0      0       0     200        0.0%
SFR_3                0      0       0     200        0.0%
BITSFR_2             0      0       0     200        0.0%
SFR_2                0      0       0     200        0.0%
BITSFR_1             0      0       0     200        0.0%
SFR_1                0      0       0     200        0.0%
BITSFR               0      0       0     200        0.0%
SFR                  0      0       0     200        0.0%
STACK                0      0       0       2        0.0%
NULL                 0      0       0       0        0.0%
ABS                  0      0     3A0      11        0.0%
DATA                 0      0     3A0       3        0.0%
CODE                 0      0       0       0        0.0%


Microchip Technology PIC18 Macro Assembler V2.00 build -1524193055 
Symbol Table                                                                                   Wed Nov 21 03:49:44 2018

                         l27 2322                           l90 22BE                           l84 2362  
                         l87 2352       __end_of_compareSignals 1D5C                  __CFG_BORV$3 000000  
       ??_compareChannelDown 0025                          l120 11FA                          l200 0568  
                        l121 140E                          l113 1CB6                          l201 0598  
                        l122 131A                          l130 0F20                          l114 1D2C  
                        l210 0722                          l202 05C8                          l123 13C8  
                        l131 0F6E                          l115 1D08                          l211 073E  
                        l203 05F8                          l124 1416                          l116 1D4E  
                        l212 075A                          l204 0628                          l141 144E  
                        l117 1D5A                          l213 0776                          l205 0658  
                        l150 17C2                          l142 1662                          l134 0FA6  
                        l230 2254                          l214 0790                          l206 0688  
                        l151 1870                          l143 156E                          l135 11BA  
                        l127 0D52                          l231 2264                          l215 0794  
                        l207 06B8                          l152 18BE                          l144 161C  
                        l136 10C6                          l128 0F66                          l216 0794  
                        l208 078C                          l161 2376                          l145 166A  
                        l137 1174                          l129 0E72                          l209 0706  
                        l138 11C2                          l155 2394                          l164 236C  
                        l148 16A2                          l228 2208                          l180 0190  
                        l172 0020                          l149 18B6                          l229 222A  
                        l173 0384                          l181 01C0                          l158 238A  
                        l190 0380                          l182 01F0                          l174 0070  
                        l167 2380                          l191 06BC                          l183 0220  
                        l175 00A0                          l520 1E1C                          l192 03E8  
                        l184 0250                          l176 00D0                          l521 1E74  
                        l193 0418                          l185 0280                          l177 0100  
                        l522 1E48                          l194 0448                          l186 02B0  
                        l178 0130                          l523 1E5C                          l515 1D8A  
                        l195 0478                          l187 02E0                          l179 0160  
                        l524 1E4C                          l516 1EAC                          l196 04A8  
                        l188 0310                          l525 1E70                          l517 1E20  
                        l197 04D8                          l189 0340                          l526 1E98  
                        l518 1E04                          l198 0508                          l519 1E08  
                        l199 0538                          l481 1ADE                          l482 1B20  
                        l483 1B6C                          l740 0842                          l484 1BB4  
                        l492 22EA                          l741 0880                          l493 22FE  
                        l750 098A                          l742 0876                          l486 1BF8  
                        l751 0992                          l743 0894                          l735 07B8  
                        l760 0A52                          l752 09A6                          l744 08FC  
                        l736 07F6                          l488 1BFE                          l761 0BC6  
                        l753 09C8                          l745 08BC                          l737 07EC  
                        l489 1C02                          l770 0B96                          l762 0B08  
                        l754 0A66                          l746 096C                          l738 080A  
                        l771 0BAC                          l763 0B04                          l755 09FE  
                        l747 09C8                          l739 0828                          l780 0CD2  
                        l772 0BC2                          l764 0B18                          l756 0D1A  
                        l748 09B2                          l773 0C10                          l765 0B56  
                        l757 0A62                          l749 0970                          l782 0CA6  
                        l774 0BF6                          l766 0BB0                          l758 0A36  
                        l783 0CCE                          l775 0C10                          l767 0B5A  
                        l759 0A3E                          l784 0CE6                          l776 0C0C  
                        l768 0B78                          l880 19A2                          l785 0CEC  
                        l777 0C82                          l769 0B8E                          l881 19BE  
                        l786 0D06                          l778 0C7E                          l890 1A86  
                        l882 19A6                          l874 1916                          l779 0C7A  
                        l883 19F0                          l875 192A                          l884 1A04  
                        l876 1958                          l885 19F4                          l877 1A9A  
                        l878 1970                          l887 1A26                          l879 1960  
                        l888 1A26                          l889 1A3A                          _GIE 007F97  
               __CFG_CPB$OFF 000000                 __CFG_CPD$OFF 000000                          wreg 000FE8  
               __CFG_LVP$OFF 000000                  main@comando 0047                 ___fltol@exp1 0022  
               __CFG_WDT$OFF 000000                         l2000 144E                         l2010 1646  
                       l2002 14C0                         l2020 1714                         l2012 166C  
                       l2004 156E                         l2100 2320                         l2102 2354  
                       l2022 17C2                         l2014 167E                         l2006 161C  
                       l2110 1C04                         l2030 21F4                         l2024 1870  
                       l2016 169E                         l2008 1642                         l2120 1C6A  
                       l2112 1C40                         l2032 2208                         l2040 18C2  
                       l2104 2342                         l2200 00B4                         l2026 1896  
                       l2018 16A2                         l2130 1C92                         l2122 1C72  
                       l2114 1C52                         l2034 2216                         l2050 1954  
                       l2042 18D2                         l2106 2266                         l2210 0100  
                       l2202 00C8                         l2028 189A                         l2140 1D08  
                       l2132 1CB2                         l2124 1C7A                         l2116 1C5A  
                       l2036 222A                         l2060 19A8                         l2052 1958  
                       l2044 18E0                         l2108 22BE                         l2300 03B0  
                       l2220 0158                         l2212 0114                         l2204 00D0  
                       l2150 1D5A                         l2142 1D0C                         l2134 1CB6  
                       l2126 1C82                         l2118 1C62                         l2038 2234  
                       l2070 1A34                         l2062 19B4                         l2054 1960  
                       l2046 192A                         l2310 03FC                         l2302 03B8  
                       l2230 01A4                         l2222 0160                         l2214 0128  
                       l2206 00E4                         l2152 238C                         l2160 2378  
                       l2136 1CDE                         l2144 1D2C                         l2128 1C8A  
                       l2080 1A80                         l2072 1A3A                         l2064 19F4  
                       l2056 1970                         l2048 1940                         l2400 06CE  
                       l2320 0448                         l2312 0410                         l2304 03CC  
                       l2240 01F0                         l2232 01B8                         l2224 0174  
                       l2216 0130                         l2208 00F8                         l2154 2382  
                       l2146 1D42                         l2138 1CEA                         l2090 2316  
                       l2082 1A86                         l2074 1A3E                         l2066 1A04  
                       l2058 19A6                         l2410 071A                         l2402 06E0  
                       l2330 04A0                         l2322 045C                         l2314 0418  
                       l2306 03E0                         l2250 0248                         l2242 0204  
                       l2234 01C0                         l2226 0188                         l2218 0144  
                       l2156 236E                         l1700 0876                         l2148 1D4E  
                       l2092 2318                         l2084 1A9A                         l2076 1A62  
                       l2068 1A12                         l2420 075A                         l2412 0722  
                       l2404 06EC                         l2340 04EC                         l2332 04A8  
                       l2324 0470                         l2316 042C                         l2308 03E8  
                       l2260 0294                         l2252 0250                         l2244 0218  
                       l2236 01D4                         l2228 0190                         l2180 002E  
                       l2172 0012                         l2158 2364                         l1710 08B4  
                       l1702 0878                         l2094 231A                         l2086 2300  
                       l2078 1A72                         l2422 076E                         l2414 0736  
                       l2406 06FE                         l2350 0538                         l2342 0500  
                       l2334 04BC                         l2326 0478                         l2318 0440  
                       l2270 02E0                         l2262 02A8                         l2254 0264  
                       l2246 0220                         l2238 01E8                         l2190 0068  
                       l2182 0040                         l2174 0016                         l1800 0B2E  
                       l1720 08CC                         l1712 08BC                         l1704 0880  
                       l2096 231C                         l2088 2314                         l2424 0776  
                       l2416 073E                         l2408 0706                         l2360 0590  
                       l2352 054C                         l2344 0508                         l2336 04D0  
                       l2328 048C                         l2280 0338                         l2272 02F4  
                       l2264 02B0                         l2256 0278                         l2248 0234  
                       l2192 0070                         l2184 0044                         l2176 001A  
                       l1810 0B72                         l1802 0B3E                         l1730 08E0  
                       l1722 08D0                         l1714 08C0                         l1706 0894  
                       l2098 231E                         l2426 077E                         l2418 0752  
                       l2370 05DC                         l2362 0598                         l2354 0560  
                       l2346 051C                         l2338 04D8                         l2290 0374  
                       l2282 0340                         l2274 0308                         l2266 02C4  
                       l2258 0280                         l2194 0084                         l2186 004C  
                       l2178 0020                         l1820 0BA6                         l1812 0B78  
                       l1804 0B52                         l1740 08F4                         l1732 08E4  
                       l1724 08D4                         l1716 08C4                         l1708 08A6  
                       l1900 1D86                         l2380 0628                         l2372 05F0  
                       l2364 05AC                         l2356 0568                         l2348 0530  
                       l2284 0354                         l2276 0310                         l2268 02D8  
                       l2196 0098                         l2188 0054                         l2292 0384  
                       l1830 0BEE                         l1814 0B86                         l1806 0B5A  
                       l1822 0BB0                         l1750 0964                         l1734 08E8  
                       l1726 08D8                         l1718 08C8                         l1742 08FC  
                       l1670 07B8                         l1910 1DCA                         l1902 1D8A  
                       l2390 0680                         l2382 063C                         l2374 05F8  
                       l2366 05C0                         l2358 057C                         l2294 0392  
                       l2286 0368                         l2278 0324                         l2198 00A0  
                       l1840 0C74                         l1832 0C04                         l1816 0B8E  
                       l1808 0B64                         l1824 0BC6                         l1760 09A6  
                       l1752 097E                         l1744 0900                         l1736 08EC  
                       l1728 08DC                         l1672 07C8                         l1680 07F6  
                       l1664 0798                         l1920 1E12                         l1912 1DD8  
                       l1904 1DB4                         l2392 0688                         l2384 0650  
                       l2376 060C                         l2368 05C8                         l2296 03A4  
                       l2288 036C                         l1850 0CD2                         l1834 0C20  
                       l1842 0C82                         l1826 0BCA                         l1818 0B96  
                       l1770 09FE                         l1762 09B0                         l1754 098A  
                       l1746 0938                         l1738 08F0                         l1690 082E  
                       l1682 080A                         l1674 07D8                         l1666 07A4  
                       l1930 1E5C                         l1914 1DEC                         l1922 1E20  
                       l1906 1DB6                         l2394 069C                         l2386 0658  
                       l2378 0620                         l2298 03A8                         l1860 0D00  
                       l1852 0CE0                         l1844 0C92                         l1836 0C2C  
                       l1828 0BD8                         l1780 0A3E                         l1772 0A0E  
                       l1764 09D6                         l1756 0992                         l1748 0954  
                       l1692 083C                         l1684 0810                         l1676 07EC  
                       l1668 07B2                         l1924 1E30                         l1932 1E74  
                       l1916 1E00                         l1908 1DC6                         l1940 11C4  
                       l2396 06B0                         l2388 066C                         l1862 0D06  
                       l1854 0CE6                         l1846 0CA6                         l1838 0C3A  
                       l1790 0A8C                         l1782 0A4C                         l1774 0A1C  
                       l1766 09E6                         l1758 09A0                         l1694 0842  
                       l1686 0822                         l1678 07EE                         l1870 1ADE  
                       l1934 1E84                         l1926 1E44                         l1918 1E08  
                       l1950 131A                         l1942 11D6                         l2398 06BC  
                       l1864 0D1A                         l1856 0CEC                         l1848 0CC6  
                       l1792 0AE2                         l1784 0A52                         l1776 0A2A  
                       l1768 09FA                         l1696 0852                         l1688 0828  
                       l1880 1B7A                         l1872 1B0C                         l1936 1E98  
                       l1928 1E4C                         l1952 13C8                         l1944 11F6  
                       l1960 0D2E                         l1858 0CF2                         l1794 0AE4  
                       l1786 0A5C                         l1778 0A36                         l1698 0862  
                       l1882 1BF2                         l1874 1B20                         l1866 1A9C  
                       l1890 22D6                         l1938 1EAC                         l1954 13EE  
                       l1946 11FA                         l1970 0F20                         l1962 0D4E  
                       l1796 0AF4                         l1788 0A66                         l1884 1BF8  
                       l1876 1B2E                         l1868 1ACA                         l1892 22EA  
                       l1956 13F2                         l1948 126C                         l1980 0FA2  
                       l1972 0F46                         l1964 0D52                         l1798 0B08  
                       l1886 1C02                         l1878 1B6C                         l1894 22FE  
                       l1990 119A                         l1982 0FA6                         l1974 0F4A  
                       l1966 0DC4                         l1958 0D1C                         l1888 22C0  
                       l1896 1D5C                         l1992 119E                         l1984 1018  
                       l1976 0F70                         l1968 0E72                         l1898 1D72  
                       l1994 1418                         l1986 10C6                         l1978 0F82  
                       l1996 142A                         l1988 1174      __end_of_compareVolumeUp 0F70  
                       l1998 144A               ?_compareTurnOn 0023                         _T0IF 007F92  
                       u2000 2254                         u2001 2250                         u2010 18D2  
                       u2011 18CE                         u2100 1A80                         u2020 18E0  
                       u2101 1A7C                         u2021 18DC                         u2030 1940  
                       u2111 1C4A                         u2031 193C                         u1400 08B4  
                       u1320 07B2                         u2120 1CAE                         u2040 199E  
                       u2200 0068                         u1401 08B0                         u1321 07AE  
                       u2121 1CAA                         u2041 199A                         u2201 0064  
                       u1410 0938                         u1330 07C8                         u2130 1CDE  
                       u2050 19EC                         u2210 0084                         u1411 0934  
                       u1331 07C4                         u2131 1CDA                         u2051 19E8  
                       u2211 0080                         u1500 0A2A                         u1420 0950  
                       u1340 07D8                         u2140 1D28                         u2060 1A12  
                       u2300 0234                         u2220 00B4                         u1501 0A26  
                       u1421 094A                         u1341 07D4                         u2141 1D24  
                       u2061 1A0E                         u2301 0230                         u2221 00B0  
                       u1510 0A4C                         u1430 0952                         u1350 0822  
                       u2150 1D42                         u2070 1A22                         u2310 0264  
                       u2230 00E4                         u1511 0A48                         u1351 081E  
                       u2151 1D3E                         u2071 1A1E                         u2311 0260  
                       u2231 00E0                         u1600 0BD8                         u1520 0A8C  
                       u1440 097E                         u1360 083C                         u2080 1A34  
                       u2400 03FC                         u2320 0294                         u2240 0114  
                       u1601 0BD4                         u1521 0A88                         u1441 097A  
                       u1361 0838                         u2081 1A30                         u2401 03F8  
                       u2321 0290                         u2241 0110                         u1610 0BEE  
                       u1530 0AF4                         u1450 09A0                         u1370 0852  
                       u2090 1A72                         u2410 042C                         u2330 02C4  
                       u2250 0144                         u1611 0BEA                         u1531 0AF0  
                       u1451 099C                         u1371 084E                         u2091 1A6E  
                       u2411 0428                         u2331 02C0                         u2251 0140  
                       u1700 0D00                         u1620 0C04                         u1540 0B2E  
                       u1460 09C4                         u1380 0862                         u2500 05DC  
                       u2420 045C                         u2340 02F4                         u2260 0174  
                       u2180 002E                         u1701 0CFC                         u1621 0C00  
                       u1541 0B2A                         u1461 09C0                         u1381 085E  
                       u2501 05D8                         u2421 0458                         u2341 02F0  
                       u2261 0170                         u2181 002A                         u1630 0C20  
                       u1550 0B3E                         u1470 09D6                         u1390 08A6  
                       u1710 1ACA                         u2510 060C                         u2430 048C  
                       u2350 0324                         u2270 01A4                         u2190 0040  
                       u1631 0C1C                         u1551 0B3A                         u1471 09D2  
                       u1391 08A2                         u1711 1AC6                         u2511 0608  
                       u2431 0488                         u2351 0320                         u2271 01A0  
                       u2191 003C                         u1640 0C3A                         u1560 0B72  
                       u1480 09E6                         u1720 1B0C                         u1800 1DEC  
                       u2600 0752                         u2520 063C                         u2440 04BC  
                       u2360 0354                         u2280 01D4                         u1641 0C36  
                       u1561 0B6E                         u1481 09E2                         u1721 1B08  
                       u1801 1DE8                         u2601 074E                         u2521 0638  
                       u2441 04B8                         u2361 0350                         u2281 01D0  
                       u1650 0C74                         u1570 0B86                         u1490 0A1C  
                       u1730 1B2E                         u1810 1E30                         u2610 076E  
                       u2530 066C                         u2450 04EC                         u2370 0392  
                       u2290 0204                         u1651 0C70                         u1571 0B82  
                       u1491 0A18                         u1731 1B2A                         u1811 1E2C  
                       u2611 076A                         u2531 0668                         u2451 04E8  
                       u2371 038E                         u2291 0200                         u1660 0C92  
                       u1580 0BA6                         u1740 1B7A                         u1820 1E6C  
                       u1900 0F9E                         u2540 069C                         u2460 051C  
                       u2380 03A4                         u1661 0C8E                         u1581 0BA2  
                       u1741 1B76                         u1821 1E68                         u1901 0F9A  
                       u2541 0698                         u2461 0518                         u2381 03A0  
                       u1670 0CA2                         u1590 0BBE                         u1750 1BF2  
                       u1830 1E84                         u1910 1018                         u2550 06CE  
                       u2470 054C                         u2390 03CC                         u1671 0C9E  
                       u1591 0BBA                         u1751 1BEE                         u1831 1E80  
                       u1911 1014                         u2551 06CA                         u2471 0548  
                       u2391 03C8                         u1680 0CC6                         u1760 22D6  
                       u1840 11F2                         u1920 11BA                         u2560 06E0  
                       u2480 057C                         u1681 0CC2                         u1761 22D2  
                       u1841 11EE                         u1921 11B6                         u2561 06DC  
                       u2481 0578                         u1690 0CE0                         u1770 1D72  
                       u1930 1446                         u1850 126C                         u2570 06FE  
                       u2490 05AC                         u1691 0CDC                         u1771 1D6E  
                       u1931 1442                         u1851 1268                         u2571 06FA  
                       u2491 05A8                         u1780 1DAA                         u1940 14C0  
                       u1860 140E                         u2580 071A                         u1941 14BC  
                       u1861 140A                         u2581 0716                         u1790 1DD8  
                       u1950 1662                         u1870 0D4A                         u2590 0736  
                       u1791 1DD4                         u1951 165E                         u1871 0D46  
                       u2591 0732                         u1960 169A                         u1880 0DC4  
                       u1785 1DA0                         u1961 1696                         u1881 0DC0  
                       u1970 1714                         u1890 0F66                         u1971 1710  
                       u1891 0F62                         _PEIE 007F96                         u1980 18B6  
                       u1981 18B2                         u1990 2216                         u1991 2212  
                       _TMR1 000FCE                         _Left 2382                         _Stop 2364  
                       _main 0012                         fsr1h 000FE2                         fsr2h 000FDA  
                       fsr1l 000FE1                         fsr2l 000FD9                         btemp 005D  
                       start 000E                __CFG_MCLRE$ON 000000                 ___param_bank 000000  
            __end_of_Forward 2396              ?_compareSignals 0029                __CFG_PLLDIV$1 000000  
            __end_of_Reverse 2382                        ?_Left 0001                        ?_Stop 0001  
              ___fltol@sign1 0021              __end_of___fladd 0D1C                        ?_main 0001  
            __end_of___flneg 2300              __end_of___fltol 1EAE                        i2l102 239A  
                      i2l107 233E                        i2l108 233E                        _TMR0L 000FD6  
                      _TRISA 000F92                        _TRISB 000F93                        _TRISC 000F94  
                      _TRISD 000F95                        _TRISE 000F96              _sumTmr1Overflow 2396  
                ?_TMR1Config 0001          ___lmul@multiplicand 0005               __CFG_FCMEN$OFF 000000  
                      _Right 236E                        _count 0057                        _index 005B  
                      tablat 000FF5                        plusw1 000FE3                        plusw2 000FDB  
                      ttemp5 005E                        ttemp6 0061                        ttemp7 0065  
                      status 000FD8                        wtemp8 005E                 __end_of_Left 238C  
            __initialization 1FAE                 __end_of_Stop 236E                 __end_of_main 0798  
                     ??_Left 0001                 _volumeUpCode 0280                       ??_Stop 0001  
                     ??_main 0047                __activetblptr 000000          compareChannelDown@i 00A2  
                     ?_Right 0001          compareChannelUp@sum 0060              ??_compareTurnOn 0025  
                     _ADCON1 000FC1             ?_compareVolumeUp 0023                       i2l1402 2326  
                     i2l1404 2334                       i2l1406 2338                       i2l1338 2396  
                     _TMR0IE 007F95                       _TMR1IE 007CE8                       _TMR1IF 007CF0  
                     _TMR1IP 007CF8                       _TMR1ON 007E68             __end_of___xxtofl 1A9C  
                  ??_Forward 0001              _channelDownCode 0400                    ??_Reverse 0001  
        __size_of_TMR1Config 0010                       ___flge 1A9C                       ___lmul 21F4  
                  ??___fladd 000D                    ??___flneg 0005                    ??___fltol 001D  
    __end_of_sumTmr1Overflow 239C                       clear_0 2058                       clear_1 2064  
               __pdataCOMRAM 0059                       tblptrh 000FF7                       tblptrl 000FF6  
                     tblptru 000FF8                   ___flge@ff1 0001                   ___flge@ff2 0005  
          ?_compareChannelUp 0023                 ___xxtofl@arg 0017                 ___xxtofl@exp 0016  
               ___xxtofl@val 000D                   __accesstop 0060      __end_of__initialization 206A  
                 ___flneg@f1 0001           ??_compareChannelUp 0025                ___rparam_used 000001  
                 ___fltol@f1 0019               __pcstackCOMRAM 0001                __end_of_Right 2378  
               __pidataBANK1 2074                 __pidataBANK2 1EAE                 __pidataBANK3 20F4  
               __pidataBANK4 2174            compareChannelUp@i 00A2           __size_of_getTimeUS 005A  
         __size_of_configPIC 0024                      ??_Right 0001       compareChannelDown@acum 00A0  
                 __pbssBANK1 0100          compareSignals@F3660 0049           __size_of_initgetUS 0012  
           ??_compareSignals 002B         compareChannelUp@acum 00A0                      ?___flge 0001  
                    ?___lmul 0001                   _enableDOWN 0059               ___lmul@product 0009  
           ?_sumTmr1Overflow 0001  __size_of_compareChannelDown 0254                    ?___xxtofl 000D  
               ??_TMR1Config 0001                      i2u87_40 2334                      i2u87_41 2330  
                    _Forward 238C            __end_of_getTimeUS 22C0                      __Hparam 0000  
                    __Lparam 0000                      _Reverse 2378            __end_of_configPIC 2324  
         __end_of_TMR1Config 2364              __size_of___flge 0168                      ___fladd 0798  
                    ___flneg 22C0              __size_of___lmul 0072                      ___fltol 1D5C  
                    __pcinit 1FAE                      __ramtop 0800                      __ptext0 0012  
                    __ptext1 2342                      __ptext2 2266                      __ptext3 18C0  
                    __ptext4 21F4                      __ptext5 2300                      __ptext6 1C04  
                    __ptext7 0D1C                      __ptext8 0F70                      __ptext9 11C4  
                 _isrPlayer1 0008                    _T1CONbits 000FCD                   ??___xxtofl 0011  
          __end_of_initgetUS 2354               __pintcode_body 2324         end_of_initialization 206A  
                    int_func 2324           compareVolumeDown@i 00A2           compareVolumeUp@sum 0060  
             compareTurnOn@i 009E                      postdec1 000FE5                      postdec2 000FDD  
                    postinc0 000FEE                      postinc2 000FDE                   _timerValue 0100  
                  _PORTCbits 000F82                  ___fladd@grs 0018                ___xxtofl@sign 0015  
                  _TRISAbits 000F92                    _TRISCbits 000F94        __end_of_compareTurnOn 1418  
   __size_of_compareVolumeUp 0254                   _turnOnCode 0180               __end_of___flge 1C04  
  __size_of_compareChannelUp 0254               __end_of___lmul 2266                __pidataCOMRAM 239C  
              _channelUpCode 0300                  ?_isrPlayer1 0001          start_initialization 1FAE  
             _volumeDownCode 0200                     ??___flge 0009                     ??___lmul 0009  
                __pdataBANK1 0180                  __pdataBANK2 0200                  __pdataBANK3 0300  
                __pdataBANK4 0400                    ___fladd@a 0009                    ___fladd@b 0005  
                __pbssCOMRAM 0049                __pcstackBANK0 0060        compareVolumeDown@acum 00A0  
          __size_of___xxtofl 01DC        compareChannelDown@sum 0060          __size_of_isrPlayer1 233A  
                   ?_Forward 0001                     ?_Reverse 0001                    __pintcode 0008  
                   ?___fladd 0005                     ?___flneg 0001                     ?___fltol 0019  
                  _getTimeUS 2266   __end_of_compareChannelDown 18C0                    _configPIC 2300  
          ??_compareVolumeUp 0025         compareSignals@signal 0041         compareSignals@values 0037  
             __size_of_Right 000A     __size_of_sumTmr1Overflow 0006            _compareVolumeDown 0F70  
                  _initgetUS 2342           ?_compareVolumeDown 0023                     _LATAbits 000F89  
                   _LATBbits 000F8A            compareTurnOn@acum 009C          ??_compareVolumeDown 0025  
                 ?_getTimeUS 001B             _compareChannelUp 1418                   ?_configPIC 0001  
    __size_of_compareSignals 0158    __end_of_compareVolumeDown 11C4                   ?_initgetUS 0001  
          ___lmul@multiplier 0001                    copy_data0 1FC2                    copy_data1 1FE2  
                  copy_data2 2006                    copy_data3 2026                    copy_data4 2046  
               _tmr1Overflow 0055       compareSignals@numMenor 0043             compareSignals@cd 0035  
           compareSignals@ii 0045             compareSignals@cu 0033             compareSignals@vd 0031  
           compareSignals@to 002D             compareSignals@vu 002F                     __Hrparam 0000  
           __size_of_Forward 000A                     __Lrparam 0000             __size_of_Reverse 000A  
           __size_of___fladd 0584             __size_of___flneg 0040             __size_of___fltol 0152  
       compareVolumeDown@sum 0060                 ??_isrPlayer1 0001                     ___xxtofl 18C0  
                   _enableUP 0053                     __ptext10 1418                     __ptext11 166C  
                   __ptext20 2382                     __ptext12 1D5C                     __ptext21 238C  
                   __ptext13 22C0                     __ptext14 1A9C                     __ptext23 2396  
                   __ptext15 0798                     __ptext16 2354                     __ptext17 2364  
                   __ptext18 236E                     __ptext19 2378                __size_of_Left 000A  
              __size_of_Stop 000A            ??_sumTmr1Overflow 0001                __size_of_main 0786  
         __end_of_isrPlayer1 2342             compareTurnOn@sum 0060             compareVolumeUp@i 00A2  
                   int$flags 005D                  ??_getTimeUS 001F                  ??_configPIC 0001  
     __size_of_compareTurnOn 0254        __CFG_CPUDIV$OSC1_PLL2 000000   __size_of_compareVolumeDown 0254  
                ??_initgetUS 0001                     intlevel2 0000          compareVolumeUp@acum 00A0  
            _compareVolumeUp 0D1C               _compareSignals 1C04                   _TMR1Config 2354  
         _compareChannelDown 166C                ___fladd@signs 0015     __end_of_compareChannelUp 166C  
         __CFG_FOSC$HSPLL_HS 000000                _compareTurnOn 11C4                 ___fladd@aexp 0016  
               ___fladd@bexp 0017          ?_compareChannelDown 0023  
